MSP430 Assembler PC v4.2.1 Sat Jan 28 11:33:17 2017

Tools Copyright (c) 2003-2013 Texas Instruments Incorporated
C:\Users\mauricio\AppData\Local\Temp\0876010                         PAGE    1

       1            ;******************************************************************************
       2            ;* MSP430 C/C++ Codegen                                             PC v4.2.1 *
       3            ;* Date/Time created: Sat Jan 28 11:33:15 2017                                *
       4            ;******************************************************************************
       5                    .compiler_opts --abi=eabi --diag_wrap=off --hll_source=on --mem_model:code=small --mem_model:d
       6            
       7            $C$DW$CU        .dwtag  DW_TAG_compile_unit
       8                    .dwattr $C$DW$CU, DW_AT_name("../main.c")
       9                    .dwattr $C$DW$CU, DW_AT_producer("TI MSP430 C/C++ Codegen PC v4.2.1 Copyright (c) 2003-2013 Te
      10                    .dwattr $C$DW$CU, DW_AT_TI_version(0x01)
      11                    .dwattr $C$DW$CU, DW_AT_comp_dir("C:\ti\workspace\1-wire-web\Debug")
      12            ;       Interrupt vector table mappings
      13 000000               .intvec ".int09",       Timer_A0
         000000       
      14            
      15            ;*****************************************************************************
      16            ;* FUNCTION SYNONYMS                                                         *
      17            ;*****************************************************************************
      18                    .symalias inicio, uart
      19            
      20            $C$DW$1 .dwtag  DW_TAG_subprogram, DW_AT_name("_bic_SR_register_on_exit")
      21                    .dwattr $C$DW$1, DW_AT_TI_symbol_name("_bic_SR_register_on_exit")
      22                    .dwattr $C$DW$1, DW_AT_type(*$C$DW$T$9)
      23                    .dwattr $C$DW$1, DW_AT_declaration
      24                    .dwattr $C$DW$1, DW_AT_external
      25                    .dwattr $C$DW$1, DW_AT_decl_file("C:\ti\ccsv5\ccs_base\msp430\include\in430.h")
      26                    .dwattr $C$DW$1, DW_AT_decl_line(0x16)
      27                    .dwattr $C$DW$1, DW_AT_decl_column(0x10)
      28            $C$DW$2 .dwtag  DW_TAG_formal_parameter
      29                    .dwattr $C$DW$2, DW_AT_type(*$C$DW$T$9)
      30                    .dwendtag $C$DW$1
      31            
      32            
      33            $C$DW$3 .dwtag  DW_TAG_subprogram, DW_AT_name("_bis_SR_register")
      34                    .dwattr $C$DW$3, DW_AT_TI_symbol_name("_bis_SR_register")
      35                    .dwattr $C$DW$3, DW_AT_type(*$C$DW$T$9)
      36                    .dwattr $C$DW$3, DW_AT_declaration
      37                    .dwattr $C$DW$3, DW_AT_external
      38                    .dwattr $C$DW$3, DW_AT_decl_file("C:\ti\ccsv5\ccs_base\msp430\include\in430.h")
      39                    .dwattr $C$DW$3, DW_AT_decl_line(0x17)
      40                    .dwattr $C$DW$3, DW_AT_decl_column(0x10)
      41            $C$DW$4 .dwtag  DW_TAG_formal_parameter
      42                    .dwattr $C$DW$4, DW_AT_type(*$C$DW$T$9)
      43                    .dwendtag $C$DW$3
      44            
      45            
      46            $C$DW$5 .dwtag  DW_TAG_subprogram, DW_AT_name("_enable_interrupts")
      47                    .dwattr $C$DW$5, DW_AT_TI_symbol_name("_enable_interrupts")
      48                    .dwattr $C$DW$5, DW_AT_declaration
      49                    .dwattr $C$DW$5, DW_AT_external
      50                    .dwattr $C$DW$5, DW_AT_decl_file("C:\ti\ccsv5\ccs_base\msp430\include\in430.h")
      51                    .dwattr $C$DW$5, DW_AT_decl_line(0x13)
      52                    .dwattr $C$DW$5, DW_AT_decl_column(0x06)
      53            $C$DW$6 .dwtag  DW_TAG_variable, DW_AT_name("IE2")
      54                    .dwattr $C$DW$6, DW_AT_TI_symbol_name("IE2")
MSP430 Assembler PC v4.2.1 Sat Jan 28 11:33:17 2017

Tools Copyright (c) 2003-2013 Texas Instruments Incorporated
C:\Users\mauricio\AppData\Local\Temp\0876010                         PAGE    2

      55                    .dwattr $C$DW$6, DW_AT_type(*$C$DW$T$36)
      56                    .dwattr $C$DW$6, DW_AT_declaration
      57                    .dwattr $C$DW$6, DW_AT_external
      58                    .dwattr $C$DW$6, DW_AT_decl_file("C:/ti/ccsv5/ccs_base/msp430/include/msp430g2553.h")
      59                    .dwattr $C$DW$6, DW_AT_decl_line(0x9b)
      60                    .dwattr $C$DW$6, DW_AT_decl_column(0x01)
      61            $C$DW$7 .dwtag  DW_TAG_variable, DW_AT_name("IFG2")
      62                    .dwattr $C$DW$7, DW_AT_TI_symbol_name("IFG2")
      63                    .dwattr $C$DW$7, DW_AT_type(*$C$DW$T$36)
      64                    .dwattr $C$DW$7, DW_AT_declaration
      65                    .dwattr $C$DW$7, DW_AT_external
      66                    .dwattr $C$DW$7, DW_AT_decl_file("C:/ti/ccsv5/ccs_base/msp430/include/msp430g2553.h")
      67                    .dwattr $C$DW$7, DW_AT_decl_line(0xa2)
      68                    .dwattr $C$DW$7, DW_AT_decl_column(0x01)
      69            $C$DW$8 .dwtag  DW_TAG_variable, DW_AT_name("ADC10AE0")
      70                    .dwattr $C$DW$8, DW_AT_TI_symbol_name("ADC10AE0")
      71                    .dwattr $C$DW$8, DW_AT_type(*$C$DW$T$36)
      72                    .dwattr $C$DW$8, DW_AT_declaration
      73                    .dwattr $C$DW$8, DW_AT_external
      74                    .dwattr $C$DW$8, DW_AT_decl_file("C:/ti/ccsv5/ccs_base/msp430/include/msp430g2553.h")
      75                    .dwattr $C$DW$8, DW_AT_decl_line(0xb0)
      76                    .dwattr $C$DW$8, DW_AT_decl_column(0x01)
      77            $C$DW$9 .dwtag  DW_TAG_variable, DW_AT_name("ADC10CTL0")
      78                    .dwattr $C$DW$9, DW_AT_TI_symbol_name("ADC10CTL0")
      79                    .dwattr $C$DW$9, DW_AT_type(*$C$DW$T$46)
      80                    .dwattr $C$DW$9, DW_AT_declaration
      81                    .dwattr $C$DW$9, DW_AT_external
      82                    .dwattr $C$DW$9, DW_AT_decl_file("C:/ti/ccsv5/ccs_base/msp430/include/msp430g2553.h")
      83                    .dwattr $C$DW$9, DW_AT_decl_line(0xb2)
      84                    .dwattr $C$DW$9, DW_AT_decl_column(0x01)
      85            $C$DW$10        .dwtag  DW_TAG_variable, DW_AT_name("ADC10CTL1")
      86                    .dwattr $C$DW$10, DW_AT_TI_symbol_name("ADC10CTL1")
      87                    .dwattr $C$DW$10, DW_AT_type(*$C$DW$T$46)
      88                    .dwattr $C$DW$10, DW_AT_declaration
      89                    .dwattr $C$DW$10, DW_AT_external
      90                    .dwattr $C$DW$10, DW_AT_decl_file("C:/ti/ccsv5/ccs_base/msp430/include/msp430g2553.h")
      91                    .dwattr $C$DW$10, DW_AT_decl_line(0xb3)
      92                    .dwattr $C$DW$10, DW_AT_decl_column(0x01)
      93            $C$DW$11        .dwtag  DW_TAG_variable, DW_AT_name("DCOCTL")
      94                    .dwattr $C$DW$11, DW_AT_TI_symbol_name("DCOCTL")
      95                    .dwattr $C$DW$11, DW_AT_type(*$C$DW$T$36)
      96                    .dwattr $C$DW$11, DW_AT_declaration
      97                    .dwattr $C$DW$11, DW_AT_external
      98                    .dwattr $C$DW$11, DW_AT_decl_file("C:/ti/ccsv5/ccs_base/msp430/include/msp430g2553.h")
      99                    .dwattr $C$DW$11, DW_AT_decl_line(0x11d)
     100                    .dwattr $C$DW$11, DW_AT_decl_column(0x01)
     101            $C$DW$12        .dwtag  DW_TAG_variable, DW_AT_name("BCSCTL1")
     102                    .dwattr $C$DW$12, DW_AT_TI_symbol_name("BCSCTL1")
     103                    .dwattr $C$DW$12, DW_AT_type(*$C$DW$T$36)
     104                    .dwattr $C$DW$12, DW_AT_declaration
     105                    .dwattr $C$DW$12, DW_AT_external
     106                    .dwattr $C$DW$12, DW_AT_decl_file("C:/ti/ccsv5/ccs_base/msp430/include/msp430g2553.h")
     107                    .dwattr $C$DW$12, DW_AT_decl_line(0x11e)
     108                    .dwattr $C$DW$12, DW_AT_decl_column(0x01)
     109            $C$DW$13        .dwtag  DW_TAG_variable, DW_AT_name("BCSCTL2")
MSP430 Assembler PC v4.2.1 Sat Jan 28 11:33:17 2017

Tools Copyright (c) 2003-2013 Texas Instruments Incorporated
C:\Users\mauricio\AppData\Local\Temp\0876010                         PAGE    3

     110                    .dwattr $C$DW$13, DW_AT_TI_symbol_name("BCSCTL2")
     111                    .dwattr $C$DW$13, DW_AT_type(*$C$DW$T$36)
     112                    .dwattr $C$DW$13, DW_AT_declaration
     113                    .dwattr $C$DW$13, DW_AT_external
     114                    .dwattr $C$DW$13, DW_AT_decl_file("C:/ti/ccsv5/ccs_base/msp430/include/msp430g2553.h")
     115                    .dwattr $C$DW$13, DW_AT_decl_line(0x11f)
     116                    .dwattr $C$DW$13, DW_AT_decl_column(0x01)
     117            $C$DW$14        .dwtag  DW_TAG_variable, DW_AT_name("P1IN")
     118                    .dwattr $C$DW$14, DW_AT_TI_symbol_name("P1IN")
     119                    .dwattr $C$DW$14, DW_AT_type(*$C$DW$T$36)
     120                    .dwattr $C$DW$14, DW_AT_declaration
     121                    .dwattr $C$DW$14, DW_AT_external
     122                    .dwattr $C$DW$14, DW_AT_decl_file("C:/ti/ccsv5/ccs_base/msp430/include/msp430g2553.h")
     123                    .dwattr $C$DW$14, DW_AT_decl_line(0x1c7)
     124                    .dwattr $C$DW$14, DW_AT_decl_column(0x01)
     125            $C$DW$15        .dwtag  DW_TAG_variable, DW_AT_name("P1OUT")
     126                    .dwattr $C$DW$15, DW_AT_TI_symbol_name("P1OUT")
     127                    .dwattr $C$DW$15, DW_AT_type(*$C$DW$T$36)
     128                    .dwattr $C$DW$15, DW_AT_declaration
     129                    .dwattr $C$DW$15, DW_AT_external
     130                    .dwattr $C$DW$15, DW_AT_decl_file("C:/ti/ccsv5/ccs_base/msp430/include/msp430g2553.h")
     131                    .dwattr $C$DW$15, DW_AT_decl_line(0x1c8)
     132                    .dwattr $C$DW$15, DW_AT_decl_column(0x01)
     133            $C$DW$16        .dwtag  DW_TAG_variable, DW_AT_name("P1DIR")
     134                    .dwattr $C$DW$16, DW_AT_TI_symbol_name("P1DIR")
     135                    .dwattr $C$DW$16, DW_AT_type(*$C$DW$T$36)
     136                    .dwattr $C$DW$16, DW_AT_declaration
     137                    .dwattr $C$DW$16, DW_AT_external
     138                    .dwattr $C$DW$16, DW_AT_decl_file("C:/ti/ccsv5/ccs_base/msp430/include/msp430g2553.h")
     139                    .dwattr $C$DW$16, DW_AT_decl_line(0x1c9)
     140                    .dwattr $C$DW$16, DW_AT_decl_column(0x01)
     141            $C$DW$17        .dwtag  DW_TAG_variable, DW_AT_name("P1IFG")
     142                    .dwattr $C$DW$17, DW_AT_TI_symbol_name("P1IFG")
     143                    .dwattr $C$DW$17, DW_AT_type(*$C$DW$T$36)
     144                    .dwattr $C$DW$17, DW_AT_declaration
     145                    .dwattr $C$DW$17, DW_AT_external
     146                    .dwattr $C$DW$17, DW_AT_decl_file("C:/ti/ccsv5/ccs_base/msp430/include/msp430g2553.h")
     147                    .dwattr $C$DW$17, DW_AT_decl_line(0x1ca)
     148                    .dwattr $C$DW$17, DW_AT_decl_column(0x01)
     149            $C$DW$18        .dwtag  DW_TAG_variable, DW_AT_name("P1IES")
     150                    .dwattr $C$DW$18, DW_AT_TI_symbol_name("P1IES")
     151                    .dwattr $C$DW$18, DW_AT_type(*$C$DW$T$36)
     152                    .dwattr $C$DW$18, DW_AT_declaration
     153                    .dwattr $C$DW$18, DW_AT_external
     154                    .dwattr $C$DW$18, DW_AT_decl_file("C:/ti/ccsv5/ccs_base/msp430/include/msp430g2553.h")
     155                    .dwattr $C$DW$18, DW_AT_decl_line(0x1cb)
     156                    .dwattr $C$DW$18, DW_AT_decl_column(0x01)
     157            $C$DW$19        .dwtag  DW_TAG_variable, DW_AT_name("P1IE")
     158                    .dwattr $C$DW$19, DW_AT_TI_symbol_name("P1IE")
     159                    .dwattr $C$DW$19, DW_AT_type(*$C$DW$T$36)
     160                    .dwattr $C$DW$19, DW_AT_declaration
     161                    .dwattr $C$DW$19, DW_AT_external
     162                    .dwattr $C$DW$19, DW_AT_decl_file("C:/ti/ccsv5/ccs_base/msp430/include/msp430g2553.h")
     163                    .dwattr $C$DW$19, DW_AT_decl_line(0x1cc)
     164                    .dwattr $C$DW$19, DW_AT_decl_column(0x01)
MSP430 Assembler PC v4.2.1 Sat Jan 28 11:33:17 2017

Tools Copyright (c) 2003-2013 Texas Instruments Incorporated
C:\Users\mauricio\AppData\Local\Temp\0876010                         PAGE    4

     165            $C$DW$20        .dwtag  DW_TAG_variable, DW_AT_name("P1SEL")
     166                    .dwattr $C$DW$20, DW_AT_TI_symbol_name("P1SEL")
     167                    .dwattr $C$DW$20, DW_AT_type(*$C$DW$T$36)
     168                    .dwattr $C$DW$20, DW_AT_declaration
     169                    .dwattr $C$DW$20, DW_AT_external
     170                    .dwattr $C$DW$20, DW_AT_decl_file("C:/ti/ccsv5/ccs_base/msp430/include/msp430g2553.h")
     171                    .dwattr $C$DW$20, DW_AT_decl_line(0x1cd)
     172                    .dwattr $C$DW$20, DW_AT_decl_column(0x01)
     173            $C$DW$21        .dwtag  DW_TAG_variable, DW_AT_name("P1SEL2")
     174                    .dwattr $C$DW$21, DW_AT_TI_symbol_name("P1SEL2")
     175                    .dwattr $C$DW$21, DW_AT_type(*$C$DW$T$36)
     176                    .dwattr $C$DW$21, DW_AT_declaration
     177                    .dwattr $C$DW$21, DW_AT_external
     178                    .dwattr $C$DW$21, DW_AT_decl_file("C:/ti/ccsv5/ccs_base/msp430/include/msp430g2553.h")
     179                    .dwattr $C$DW$21, DW_AT_decl_line(0x1ce)
     180                    .dwattr $C$DW$21, DW_AT_decl_column(0x01)
     181            $C$DW$22        .dwtag  DW_TAG_variable, DW_AT_name("P1REN")
     182                    .dwattr $C$DW$22, DW_AT_TI_symbol_name("P1REN")
     183                    .dwattr $C$DW$22, DW_AT_type(*$C$DW$T$36)
     184                    .dwattr $C$DW$22, DW_AT_declaration
     185                    .dwattr $C$DW$22, DW_AT_external
     186                    .dwattr $C$DW$22, DW_AT_decl_file("C:/ti/ccsv5/ccs_base/msp430/include/msp430g2553.h")
     187                    .dwattr $C$DW$22, DW_AT_decl_line(0x1cf)
     188                    .dwattr $C$DW$22, DW_AT_decl_column(0x01)
     189            $C$DW$23        .dwtag  DW_TAG_variable, DW_AT_name("P2OUT")
     190                    .dwattr $C$DW$23, DW_AT_TI_symbol_name("P2OUT")
     191                    .dwattr $C$DW$23, DW_AT_type(*$C$DW$T$36)
     192                    .dwattr $C$DW$23, DW_AT_declaration
     193                    .dwattr $C$DW$23, DW_AT_external
     194                    .dwattr $C$DW$23, DW_AT_decl_file("C:/ti/ccsv5/ccs_base/msp430/include/msp430g2553.h")
     195                    .dwattr $C$DW$23, DW_AT_decl_line(0x1d2)
     196                    .dwattr $C$DW$23, DW_AT_decl_column(0x01)
     197            $C$DW$24        .dwtag  DW_TAG_variable, DW_AT_name("P2DIR")
     198                    .dwattr $C$DW$24, DW_AT_TI_symbol_name("P2DIR")
     199                    .dwattr $C$DW$24, DW_AT_type(*$C$DW$T$36)
     200                    .dwattr $C$DW$24, DW_AT_declaration
     201                    .dwattr $C$DW$24, DW_AT_external
     202                    .dwattr $C$DW$24, DW_AT_decl_file("C:/ti/ccsv5/ccs_base/msp430/include/msp430g2553.h")
     203                    .dwattr $C$DW$24, DW_AT_decl_line(0x1d3)
     204                    .dwattr $C$DW$24, DW_AT_decl_column(0x01)
     205            $C$DW$25        .dwtag  DW_TAG_variable, DW_AT_name("P2IFG")
     206                    .dwattr $C$DW$25, DW_AT_TI_symbol_name("P2IFG")
     207                    .dwattr $C$DW$25, DW_AT_type(*$C$DW$T$36)
     208                    .dwattr $C$DW$25, DW_AT_declaration
     209                    .dwattr $C$DW$25, DW_AT_external
     210                    .dwattr $C$DW$25, DW_AT_decl_file("C:/ti/ccsv5/ccs_base/msp430/include/msp430g2553.h")
     211                    .dwattr $C$DW$25, DW_AT_decl_line(0x1d4)
     212                    .dwattr $C$DW$25, DW_AT_decl_column(0x01)
     213            $C$DW$26        .dwtag  DW_TAG_variable, DW_AT_name("P2IES")
     214                    .dwattr $C$DW$26, DW_AT_TI_symbol_name("P2IES")
     215                    .dwattr $C$DW$26, DW_AT_type(*$C$DW$T$36)
     216                    .dwattr $C$DW$26, DW_AT_declaration
     217                    .dwattr $C$DW$26, DW_AT_external
     218                    .dwattr $C$DW$26, DW_AT_decl_file("C:/ti/ccsv5/ccs_base/msp430/include/msp430g2553.h")
     219                    .dwattr $C$DW$26, DW_AT_decl_line(0x1d5)
MSP430 Assembler PC v4.2.1 Sat Jan 28 11:33:17 2017

Tools Copyright (c) 2003-2013 Texas Instruments Incorporated
C:\Users\mauricio\AppData\Local\Temp\0876010                         PAGE    5

     220                    .dwattr $C$DW$26, DW_AT_decl_column(0x01)
     221            $C$DW$27        .dwtag  DW_TAG_variable, DW_AT_name("P2IE")
     222                    .dwattr $C$DW$27, DW_AT_TI_symbol_name("P2IE")
     223                    .dwattr $C$DW$27, DW_AT_type(*$C$DW$T$36)
     224                    .dwattr $C$DW$27, DW_AT_declaration
     225                    .dwattr $C$DW$27, DW_AT_external
     226                    .dwattr $C$DW$27, DW_AT_decl_file("C:/ti/ccsv5/ccs_base/msp430/include/msp430g2553.h")
     227                    .dwattr $C$DW$27, DW_AT_decl_line(0x1d6)
     228                    .dwattr $C$DW$27, DW_AT_decl_column(0x01)
     229            $C$DW$28        .dwtag  DW_TAG_variable, DW_AT_name("P2SEL")
     230                    .dwattr $C$DW$28, DW_AT_TI_symbol_name("P2SEL")
     231                    .dwattr $C$DW$28, DW_AT_type(*$C$DW$T$36)
     232                    .dwattr $C$DW$28, DW_AT_declaration
     233                    .dwattr $C$DW$28, DW_AT_external
     234                    .dwattr $C$DW$28, DW_AT_decl_file("C:/ti/ccsv5/ccs_base/msp430/include/msp430g2553.h")
     235                    .dwattr $C$DW$28, DW_AT_decl_line(0x1d7)
     236                    .dwattr $C$DW$28, DW_AT_decl_column(0x01)
     237            $C$DW$29        .dwtag  DW_TAG_variable, DW_AT_name("P2SEL2")
     238                    .dwattr $C$DW$29, DW_AT_TI_symbol_name("P2SEL2")
     239                    .dwattr $C$DW$29, DW_AT_type(*$C$DW$T$36)
     240                    .dwattr $C$DW$29, DW_AT_declaration
     241                    .dwattr $C$DW$29, DW_AT_external
     242                    .dwattr $C$DW$29, DW_AT_decl_file("C:/ti/ccsv5/ccs_base/msp430/include/msp430g2553.h")
     243                    .dwattr $C$DW$29, DW_AT_decl_line(0x1d8)
     244                    .dwattr $C$DW$29, DW_AT_decl_column(0x01)
     245            $C$DW$30        .dwtag  DW_TAG_variable, DW_AT_name("P2REN")
     246                    .dwattr $C$DW$30, DW_AT_TI_symbol_name("P2REN")
     247                    .dwattr $C$DW$30, DW_AT_type(*$C$DW$T$36)
     248                    .dwattr $C$DW$30, DW_AT_declaration
     249                    .dwattr $C$DW$30, DW_AT_external
     250                    .dwattr $C$DW$30, DW_AT_decl_file("C:/ti/ccsv5/ccs_base/msp430/include/msp430g2553.h")
     251                    .dwattr $C$DW$30, DW_AT_decl_line(0x1d9)
     252                    .dwattr $C$DW$30, DW_AT_decl_column(0x01)
     253            $C$DW$31        .dwtag  DW_TAG_variable, DW_AT_name("TA0CTL")
     254                    .dwattr $C$DW$31, DW_AT_TI_symbol_name("TA0CTL")
     255                    .dwattr $C$DW$31, DW_AT_type(*$C$DW$T$46)
     256                    .dwattr $C$DW$31, DW_AT_declaration
     257                    .dwattr $C$DW$31, DW_AT_external
     258                    .dwattr $C$DW$31, DW_AT_decl_file("C:/ti/ccsv5/ccs_base/msp430/include/msp430g2553.h")
     259                    .dwattr $C$DW$31, DW_AT_decl_line(0x1ed)
     260                    .dwattr $C$DW$31, DW_AT_decl_column(0x01)
     261            $C$DW$32        .dwtag  DW_TAG_variable, DW_AT_name("TA0CCTL0")
     262                    .dwattr $C$DW$32, DW_AT_TI_symbol_name("TA0CCTL0")
     263                    .dwattr $C$DW$32, DW_AT_type(*$C$DW$T$46)
     264                    .dwattr $C$DW$32, DW_AT_declaration
     265                    .dwattr $C$DW$32, DW_AT_external
     266                    .dwattr $C$DW$32, DW_AT_decl_file("C:/ti/ccsv5/ccs_base/msp430/include/msp430g2553.h")
     267                    .dwattr $C$DW$32, DW_AT_decl_line(0x1ee)
     268                    .dwattr $C$DW$32, DW_AT_decl_column(0x01)
     269            $C$DW$33        .dwtag  DW_TAG_variable, DW_AT_name("TA0R")
     270                    .dwattr $C$DW$33, DW_AT_TI_symbol_name("TA0R")
     271                    .dwattr $C$DW$33, DW_AT_type(*$C$DW$T$46)
     272                    .dwattr $C$DW$33, DW_AT_declaration
     273                    .dwattr $C$DW$33, DW_AT_external
     274                    .dwattr $C$DW$33, DW_AT_decl_file("C:/ti/ccsv5/ccs_base/msp430/include/msp430g2553.h")
MSP430 Assembler PC v4.2.1 Sat Jan 28 11:33:17 2017

Tools Copyright (c) 2003-2013 Texas Instruments Incorporated
C:\Users\mauricio\AppData\Local\Temp\0876010                         PAGE    6

     275                    .dwattr $C$DW$33, DW_AT_decl_line(0x1f1)
     276                    .dwattr $C$DW$33, DW_AT_decl_column(0x01)
     277            $C$DW$34        .dwtag  DW_TAG_variable, DW_AT_name("TA0CCR0")
     278                    .dwattr $C$DW$34, DW_AT_TI_symbol_name("TA0CCR0")
     279                    .dwattr $C$DW$34, DW_AT_type(*$C$DW$T$46)
     280                    .dwattr $C$DW$34, DW_AT_declaration
     281                    .dwattr $C$DW$34, DW_AT_external
     282                    .dwattr $C$DW$34, DW_AT_decl_file("C:/ti/ccsv5/ccs_base/msp430/include/msp430g2553.h")
     283                    .dwattr $C$DW$34, DW_AT_decl_line(0x1f2)
     284                    .dwattr $C$DW$34, DW_AT_decl_column(0x01)
     285            $C$DW$35        .dwtag  DW_TAG_variable, DW_AT_name("TA1CTL")
     286                    .dwattr $C$DW$35, DW_AT_TI_symbol_name("TA1CTL")
     287                    .dwattr $C$DW$35, DW_AT_type(*$C$DW$T$46)
     288                    .dwattr $C$DW$35, DW_AT_declaration
     289                    .dwattr $C$DW$35, DW_AT_external
     290                    .dwattr $C$DW$35, DW_AT_decl_file("C:/ti/ccsv5/ccs_base/msp430/include/msp430g2553.h")
     291                    .dwattr $C$DW$35, DW_AT_decl_line(0x25e)
     292                    .dwattr $C$DW$35, DW_AT_decl_column(0x01)
     293            $C$DW$36        .dwtag  DW_TAG_variable, DW_AT_name("TA1CCTL0")
     294                    .dwattr $C$DW$36, DW_AT_TI_symbol_name("TA1CCTL0")
     295                    .dwattr $C$DW$36, DW_AT_type(*$C$DW$T$46)
     296                    .dwattr $C$DW$36, DW_AT_declaration
     297                    .dwattr $C$DW$36, DW_AT_external
     298                    .dwattr $C$DW$36, DW_AT_decl_file("C:/ti/ccsv5/ccs_base/msp430/include/msp430g2553.h")
     299                    .dwattr $C$DW$36, DW_AT_decl_line(0x25f)
     300                    .dwattr $C$DW$36, DW_AT_decl_column(0x01)
     301            $C$DW$37        .dwtag  DW_TAG_variable, DW_AT_name("UCA0CTL1")
     302                    .dwattr $C$DW$37, DW_AT_TI_symbol_name("UCA0CTL1")
     303                    .dwattr $C$DW$37, DW_AT_type(*$C$DW$T$36)
     304                    .dwattr $C$DW$37, DW_AT_declaration
     305                    .dwattr $C$DW$37, DW_AT_external
     306                    .dwattr $C$DW$37, DW_AT_decl_file("C:/ti/ccsv5/ccs_base/msp430/include/msp430g2553.h")
     307                    .dwattr $C$DW$37, DW_AT_decl_line(0x277)
     308                    .dwattr $C$DW$37, DW_AT_decl_column(0x01)
     309            $C$DW$38        .dwtag  DW_TAG_variable, DW_AT_name("UCA0BR0")
     310                    .dwattr $C$DW$38, DW_AT_TI_symbol_name("UCA0BR0")
     311                    .dwattr $C$DW$38, DW_AT_type(*$C$DW$T$36)
     312                    .dwattr $C$DW$38, DW_AT_declaration
     313                    .dwattr $C$DW$38, DW_AT_external
     314                    .dwattr $C$DW$38, DW_AT_decl_file("C:/ti/ccsv5/ccs_base/msp430/include/msp430g2553.h")
     315                    .dwattr $C$DW$38, DW_AT_decl_line(0x278)
     316                    .dwattr $C$DW$38, DW_AT_decl_column(0x01)
     317            $C$DW$39        .dwtag  DW_TAG_variable, DW_AT_name("UCA0BR1")
     318                    .dwattr $C$DW$39, DW_AT_TI_symbol_name("UCA0BR1")
     319                    .dwattr $C$DW$39, DW_AT_type(*$C$DW$T$36)
     320                    .dwattr $C$DW$39, DW_AT_declaration
     321                    .dwattr $C$DW$39, DW_AT_external
     322                    .dwattr $C$DW$39, DW_AT_decl_file("C:/ti/ccsv5/ccs_base/msp430/include/msp430g2553.h")
     323                    .dwattr $C$DW$39, DW_AT_decl_line(0x279)
     324                    .dwattr $C$DW$39, DW_AT_decl_column(0x01)
     325            $C$DW$40        .dwtag  DW_TAG_variable, DW_AT_name("UCA0MCTL")
     326                    .dwattr $C$DW$40, DW_AT_TI_symbol_name("UCA0MCTL")
     327                    .dwattr $C$DW$40, DW_AT_type(*$C$DW$T$36)
     328                    .dwattr $C$DW$40, DW_AT_declaration
     329                    .dwattr $C$DW$40, DW_AT_external
MSP430 Assembler PC v4.2.1 Sat Jan 28 11:33:17 2017

Tools Copyright (c) 2003-2013 Texas Instruments Incorporated
C:\Users\mauricio\AppData\Local\Temp\0876010                         PAGE    7

     330                    .dwattr $C$DW$40, DW_AT_decl_file("C:/ti/ccsv5/ccs_base/msp430/include/msp430g2553.h")
     331                    .dwattr $C$DW$40, DW_AT_decl_line(0x27a)
     332                    .dwattr $C$DW$40, DW_AT_decl_column(0x01)
     333            $C$DW$41        .dwtag  DW_TAG_variable, DW_AT_name("UCA0TXBUF")
     334                    .dwattr $C$DW$41, DW_AT_TI_symbol_name("UCA0TXBUF")
     335                    .dwattr $C$DW$41, DW_AT_type(*$C$DW$T$36)
     336                    .dwattr $C$DW$41, DW_AT_declaration
     337                    .dwattr $C$DW$41, DW_AT_external
     338                    .dwattr $C$DW$41, DW_AT_decl_file("C:/ti/ccsv5/ccs_base/msp430/include/msp430g2553.h")
     339                    .dwattr $C$DW$41, DW_AT_decl_line(0x27d)
     340                    .dwattr $C$DW$41, DW_AT_decl_column(0x01)
     341            $C$DW$42        .dwtag  DW_TAG_variable, DW_AT_name("WDTCTL")
     342                    .dwattr $C$DW$42, DW_AT_TI_symbol_name("WDTCTL")
     343                    .dwattr $C$DW$42, DW_AT_type(*$C$DW$T$46)
     344                    .dwattr $C$DW$42, DW_AT_declaration
     345                    .dwattr $C$DW$42, DW_AT_external
     346                    .dwattr $C$DW$42, DW_AT_decl_file("C:/ti/ccsv5/ccs_base/msp430/include/msp430g2553.h")
     347                    .dwattr $C$DW$42, DW_AT_decl_line(0x339)
     348                    .dwattr $C$DW$42, DW_AT_decl_column(0x01)
     349            $C$DW$43        .dwtag  DW_TAG_variable, DW_AT_name("CALDCO_8MHZ")
     350                    .dwattr $C$DW$43, DW_AT_TI_symbol_name("CALDCO_8MHZ")
     351                    .dwattr $C$DW$43, DW_AT_type(*$C$DW$T$36)
     352                    .dwattr $C$DW$43, DW_AT_declaration
     353                    .dwattr $C$DW$43, DW_AT_external
     354                    .dwattr $C$DW$43, DW_AT_decl_file("C:/ti/ccsv5/ccs_base/msp430/include/msp430g2553.h")
     355                    .dwattr $C$DW$43, DW_AT_decl_line(0x36c)
     356                    .dwattr $C$DW$43, DW_AT_decl_column(0x01)
     357            $C$DW$44        .dwtag  DW_TAG_variable, DW_AT_name("CALBC1_8MHZ")
     358                    .dwattr $C$DW$44, DW_AT_TI_symbol_name("CALBC1_8MHZ")
     359                    .dwattr $C$DW$44, DW_AT_type(*$C$DW$T$36)
     360                    .dwattr $C$DW$44, DW_AT_declaration
     361                    .dwattr $C$DW$44, DW_AT_external
     362                    .dwattr $C$DW$44, DW_AT_decl_file("C:/ti/ccsv5/ccs_base/msp430/include/msp430g2553.h")
     363                    .dwattr $C$DW$44, DW_AT_decl_line(0x36d)
     364                    .dwattr $C$DW$44, DW_AT_decl_column(0x01)
     365                    .global aux_char
     366                    .common aux_char,8,2
     367            $C$DW$45        .dwtag  DW_TAG_variable, DW_AT_name("aux_char")
     368                    .dwattr $C$DW$45, DW_AT_TI_symbol_name("aux_char")
     369                    .dwattr $C$DW$45, DW_AT_location[DW_OP_addr aux_char]
     370                    .dwattr $C$DW$45, DW_AT_type(*$C$DW$T$47)
     371                    .dwattr $C$DW$45, DW_AT_external
     372                    .dwattr $C$DW$45, DW_AT_decl_file("..\CDC.h")
     373                    .dwattr $C$DW$45, DW_AT_decl_line(0x28)
     374                    .dwattr $C$DW$45, DW_AT_decl_column(0x06)
     375                    .global aux_char1
     376                    .common aux_char1,10,2
     377            $C$DW$46        .dwtag  DW_TAG_variable, DW_AT_name("aux_char1")
     378                    .dwattr $C$DW$46, DW_AT_TI_symbol_name("aux_char1")
     379                    .dwattr $C$DW$46, DW_AT_location[DW_OP_addr aux_char1]
     380                    .dwattr $C$DW$46, DW_AT_type(*$C$DW$T$48)
     381                    .dwattr $C$DW$46, DW_AT_external
     382                    .dwattr $C$DW$46, DW_AT_decl_file("..\CDC.h")
     383                    .dwattr $C$DW$46, DW_AT_decl_line(0x29)
     384                    .dwattr $C$DW$46, DW_AT_decl_column(0x06)
MSP430 Assembler PC v4.2.1 Sat Jan 28 11:33:17 2017

Tools Copyright (c) 2003-2013 Texas Instruments Incorporated
C:\Users\mauricio\AppData\Local\Temp\0876010                         PAGE    8

     385                    .global soyunvector
     386                    .common soyunvector,2,2
     387            $C$DW$47        .dwtag  DW_TAG_variable, DW_AT_name("soyunvector")
     388                    .dwattr $C$DW$47, DW_AT_TI_symbol_name("soyunvector")
     389                    .dwattr $C$DW$47, DW_AT_location[DW_OP_addr soyunvector]
     390                    .dwattr $C$DW$47, DW_AT_type(*$C$DW$T$49)
     391                    .dwattr $C$DW$47, DW_AT_external
     392                    .dwattr $C$DW$47, DW_AT_decl_file("..\CDC.h")
     393                    .dwattr $C$DW$47, DW_AT_decl_line(0x2a)
     394                    .dwattr $C$DW$47, DW_AT_decl_column(0x06)
     395                    .global signo
     396                    .common signo,1,1
     397            $C$DW$48        .dwtag  DW_TAG_variable, DW_AT_name("signo")
     398                    .dwattr $C$DW$48, DW_AT_TI_symbol_name("signo")
     399                    .dwattr $C$DW$48, DW_AT_location[DW_OP_addr signo]
     400                    .dwattr $C$DW$48, DW_AT_type(*$C$DW$T$6)
     401                    .dwattr $C$DW$48, DW_AT_external
     402                    .dwattr $C$DW$48, DW_AT_decl_file("..\CDC.h")
     403                    .dwattr $C$DW$48, DW_AT_decl_line(0x2d)
     404                    .dwattr $C$DW$48, DW_AT_decl_column(0x07)
     405                    .global _UD
     406                    .common _UD,1,1
     407            $C$DW$49        .dwtag  DW_TAG_variable, DW_AT_name("_UD")
     408                    .dwattr $C$DW$49, DW_AT_TI_symbol_name("_UD")
     409                    .dwattr $C$DW$49, DW_AT_location[DW_OP_addr _UD]
     410                    .dwattr $C$DW$49, DW_AT_type(*$C$DW$T$6)
     411                    .dwattr $C$DW$49, DW_AT_external
     412                    .dwattr $C$DW$49, DW_AT_decl_file("..\CDC.h")
     413                    .dwattr $C$DW$49, DW_AT_decl_line(0x2e)
     414                    .dwattr $C$DW$49, DW_AT_decl_column(0x0f)
     415                    .global _U
     416                    .common _U,1,1
     417            $C$DW$50        .dwtag  DW_TAG_variable, DW_AT_name("_U")
     418                    .dwattr $C$DW$50, DW_AT_TI_symbol_name("_U")
     419                    .dwattr $C$DW$50, DW_AT_location[DW_OP_addr _U]
     420                    .dwattr $C$DW$50, DW_AT_type(*$C$DW$T$6)
     421                    .dwattr $C$DW$50, DW_AT_external
     422                    .dwattr $C$DW$50, DW_AT_decl_file("..\CDC.h")
     423                    .dwattr $C$DW$50, DW_AT_decl_line(0x2e)
     424                    .dwattr $C$DW$50, DW_AT_decl_column(0x13)
     425                    .global _D
     426                    .common _D,1,1
     427            $C$DW$51        .dwtag  DW_TAG_variable, DW_AT_name("_D")
     428                    .dwattr $C$DW$51, DW_AT_TI_symbol_name("_D")
     429                    .dwattr $C$DW$51, DW_AT_location[DW_OP_addr _D]
     430                    .dwattr $C$DW$51, DW_AT_type(*$C$DW$T$6)
     431                    .dwattr $C$DW$51, DW_AT_external
     432                    .dwattr $C$DW$51, DW_AT_decl_file("..\CDC.h")
     433                    .dwattr $C$DW$51, DW_AT_decl_line(0x2e)
     434                    .dwattr $C$DW$51, DW_AT_decl_column(0x16)
     435                    .global _UM
     436                    .common _UM,1,1
     437            $C$DW$52        .dwtag  DW_TAG_variable, DW_AT_name("_UM")
     438                    .dwattr $C$DW$52, DW_AT_TI_symbol_name("_UM")
     439                    .dwattr $C$DW$52, DW_AT_location[DW_OP_addr _UM]
MSP430 Assembler PC v4.2.1 Sat Jan 28 11:33:17 2017

Tools Copyright (c) 2003-2013 Texas Instruments Incorporated
C:\Users\mauricio\AppData\Local\Temp\0876010                         PAGE    9

     440                    .dwattr $C$DW$52, DW_AT_type(*$C$DW$T$6)
     441                    .dwattr $C$DW$52, DW_AT_external
     442                    .dwattr $C$DW$52, DW_AT_decl_file("..\CDC.h")
     443                    .dwattr $C$DW$52, DW_AT_decl_line(0x2e)
     444                    .dwattr $C$DW$52, DW_AT_decl_column(0x19)
     445                    .global _C
     446                    .common _C,1,1
     447            $C$DW$53        .dwtag  DW_TAG_variable, DW_AT_name("_C")
     448                    .dwattr $C$DW$53, DW_AT_TI_symbol_name("_C")
     449                    .dwattr $C$DW$53, DW_AT_location[DW_OP_addr _C]
     450                    .dwattr $C$DW$53, DW_AT_type(*$C$DW$T$6)
     451                    .dwattr $C$DW$53, DW_AT_external
     452                    .dwattr $C$DW$53, DW_AT_decl_file("..\CDC.h")
     453                    .dwattr $C$DW$53, DW_AT_decl_line(0x2e)
     454                    .dwattr $C$DW$53, DW_AT_decl_column(0x1d)
     455                    .global _DM
     456                    .common _DM,1,1
     457            $C$DW$54        .dwtag  DW_TAG_variable, DW_AT_name("_DM")
     458                    .dwattr $C$DW$54, DW_AT_TI_symbol_name("_DM")
     459                    .dwattr $C$DW$54, DW_AT_location[DW_OP_addr _DM]
     460                    .dwattr $C$DW$54, DW_AT_type(*$C$DW$T$6)
     461                    .dwattr $C$DW$54, DW_AT_external
     462                    .dwattr $C$DW$54, DW_AT_decl_file("..\CDC.h")
     463                    .dwattr $C$DW$54, DW_AT_decl_line(0x2e)
     464                    .dwattr $C$DW$54, DW_AT_decl_column(0x20)
     465                    .global u
     466                    .common u,4,2
     467            $C$DW$55        .dwtag  DW_TAG_variable, DW_AT_name("u")
     468                    .dwattr $C$DW$55, DW_AT_TI_symbol_name("u")
     469                    .dwattr $C$DW$55, DW_AT_location[DW_OP_addr u]
     470                    .dwattr $C$DW$55, DW_AT_type(*$C$DW$T$13)
     471                    .dwattr $C$DW$55, DW_AT_external
     472                    .dwattr $C$DW$55, DW_AT_decl_file("..\CDC.h")
     473                    .dwattr $C$DW$55, DW_AT_decl_line(0x2f)
     474                    .dwattr $C$DW$55, DW_AT_decl_column(0x0f)
     475                    .global d
     476                    .common d,4,2
     477            $C$DW$56        .dwtag  DW_TAG_variable, DW_AT_name("d")
     478                    .dwattr $C$DW$56, DW_AT_TI_symbol_name("d")
     479                    .dwattr $C$DW$56, DW_AT_location[DW_OP_addr d]
     480                    .dwattr $C$DW$56, DW_AT_type(*$C$DW$T$13)
     481                    .dwattr $C$DW$56, DW_AT_external
     482                    .dwattr $C$DW$56, DW_AT_decl_file("..\CDC.h")
     483                    .dwattr $C$DW$56, DW_AT_decl_line(0x2f)
     484                    .dwattr $C$DW$56, DW_AT_decl_column(0x11)
     485                    .global c
     486                    .common c,4,2
     487            $C$DW$57        .dwtag  DW_TAG_variable, DW_AT_name("c")
     488                    .dwattr $C$DW$57, DW_AT_TI_symbol_name("c")
     489                    .dwattr $C$DW$57, DW_AT_location[DW_OP_addr c]
     490                    .dwattr $C$DW$57, DW_AT_type(*$C$DW$T$13)
     491                    .dwattr $C$DW$57, DW_AT_external
     492                    .dwattr $C$DW$57, DW_AT_decl_file("..\CDC.h")
     493                    .dwattr $C$DW$57, DW_AT_decl_line(0x2f)
     494                    .dwattr $C$DW$57, DW_AT_decl_column(0x13)
MSP430 Assembler PC v4.2.1 Sat Jan 28 11:33:17 2017

Tools Copyright (c) 2003-2013 Texas Instruments Incorporated
C:\Users\mauricio\AppData\Local\Temp\0876010                         PAGE   10

     495                    .global um
     496                    .common um,4,2
     497            $C$DW$58        .dwtag  DW_TAG_variable, DW_AT_name("um")
     498                    .dwattr $C$DW$58, DW_AT_TI_symbol_name("um")
     499                    .dwattr $C$DW$58, DW_AT_location[DW_OP_addr um]
     500                    .dwattr $C$DW$58, DW_AT_type(*$C$DW$T$13)
     501                    .dwattr $C$DW$58, DW_AT_external
     502                    .dwattr $C$DW$58, DW_AT_decl_file("..\CDC.h")
     503                    .dwattr $C$DW$58, DW_AT_decl_line(0x2f)
     504                    .dwattr $C$DW$58, DW_AT_decl_column(0x15)
     505                    .global dm
     506                    .common dm,4,2
     507            $C$DW$59        .dwtag  DW_TAG_variable, DW_AT_name("dm")
     508                    .dwattr $C$DW$59, DW_AT_TI_symbol_name("dm")
     509                    .dwattr $C$DW$59, DW_AT_location[DW_OP_addr dm]
     510                    .dwattr $C$DW$59, DW_AT_type(*$C$DW$T$13)
     511                    .dwattr $C$DW$59, DW_AT_external
     512                    .dwattr $C$DW$59, DW_AT_decl_file("..\CDC.h")
     513                    .dwattr $C$DW$59, DW_AT_decl_line(0x2f)
     514                    .dwattr $C$DW$59, DW_AT_decl_column(0x18)
     515                    .global cm
     516                    .common cm,4,2
     517            $C$DW$60        .dwtag  DW_TAG_variable, DW_AT_name("cm")
     518                    .dwattr $C$DW$60, DW_AT_TI_symbol_name("cm")
     519                    .dwattr $C$DW$60, DW_AT_location[DW_OP_addr cm]
     520                    .dwattr $C$DW$60, DW_AT_type(*$C$DW$T$13)
     521                    .dwattr $C$DW$60, DW_AT_external
     522                    .dwattr $C$DW$60, DW_AT_decl_file("..\CDC.h")
     523                    .dwattr $C$DW$60, DW_AT_decl_line(0x2f)
     524                    .dwattr $C$DW$60, DW_AT_decl_column(0x1b)
     525                    .global uM
     526                    .common uM,4,2
     527            $C$DW$61        .dwtag  DW_TAG_variable, DW_AT_name("uM")
     528                    .dwattr $C$DW$61, DW_AT_TI_symbol_name("uM")
     529                    .dwattr $C$DW$61, DW_AT_location[DW_OP_addr uM]
     530                    .dwattr $C$DW$61, DW_AT_type(*$C$DW$T$13)
     531                    .dwattr $C$DW$61, DW_AT_external
     532                    .dwattr $C$DW$61, DW_AT_decl_file("..\CDC.h")
     533                    .dwattr $C$DW$61, DW_AT_decl_line(0x2f)
     534                    .dwattr $C$DW$61, DW_AT_decl_column(0x1e)
     535                    .global dM
     536                    .common dM,4,2
     537            $C$DW$62        .dwtag  DW_TAG_variable, DW_AT_name("dM")
     538                    .dwattr $C$DW$62, DW_AT_TI_symbol_name("dM")
     539                    .dwattr $C$DW$62, DW_AT_location[DW_OP_addr dM]
     540                    .dwattr $C$DW$62, DW_AT_type(*$C$DW$T$13)
     541                    .dwattr $C$DW$62, DW_AT_external
     542                    .dwattr $C$DW$62, DW_AT_decl_file("..\CDC.h")
     543                    .dwattr $C$DW$62, DW_AT_decl_line(0x2f)
     544                    .dwattr $C$DW$62, DW_AT_decl_column(0x21)
     545                    .global cM
     546                    .common cM,4,2
     547            $C$DW$63        .dwtag  DW_TAG_variable, DW_AT_name("cM")
     548                    .dwattr $C$DW$63, DW_AT_TI_symbol_name("cM")
     549                    .dwattr $C$DW$63, DW_AT_location[DW_OP_addr cM]
MSP430 Assembler PC v4.2.1 Sat Jan 28 11:33:17 2017

Tools Copyright (c) 2003-2013 Texas Instruments Incorporated
C:\Users\mauricio\AppData\Local\Temp\0876010                         PAGE   11

     550                    .dwattr $C$DW$63, DW_AT_type(*$C$DW$T$13)
     551                    .dwattr $C$DW$63, DW_AT_external
     552                    .dwattr $C$DW$63, DW_AT_decl_file("..\CDC.h")
     553                    .dwattr $C$DW$63, DW_AT_decl_line(0x2f)
     554                    .dwattr $C$DW$63, DW_AT_decl_column(0x24)
     555                    .global auxSR
     556 000000               .data
     557                    .align  2
     558                    .elfsym auxSR,SYM_SIZE(2)
     559 000000       auxSR:
     560 000000 0000          .bits   0,16                    ; auxSR @ 0
     561            
     562            $C$DW$64        .dwtag  DW_TAG_variable, DW_AT_name("auxSR")
     563                    .dwattr $C$DW$64, DW_AT_TI_symbol_name("auxSR")
     564                    .dwattr $C$DW$64, DW_AT_location[DW_OP_addr auxSR]
     565                    .dwattr $C$DW$64, DW_AT_type(*$C$DW$T$11)
     566                    .dwattr $C$DW$64, DW_AT_external
     567                    .dwattr $C$DW$64, DW_AT_decl_file("..\CDC.h")
     568                    .dwattr $C$DW$64, DW_AT_decl_line(0x30)
     569                    .dwattr $C$DW$64, DW_AT_decl_column(0x0e)
     570                    .global dataSR1
     571 000002               .data
     572                    .align  2
     573                    .elfsym dataSR1,SYM_SIZE(2)
     574 000002       dataSR1:
     575 000002 0000          .bits   0,16                    ; dataSR1 @ 0
     576            
     577            $C$DW$65        .dwtag  DW_TAG_variable, DW_AT_name("dataSR1")
     578                    .dwattr $C$DW$65, DW_AT_TI_symbol_name("dataSR1")
     579                    .dwattr $C$DW$65, DW_AT_location[DW_OP_addr dataSR1]
     580                    .dwattr $C$DW$65, DW_AT_type(*$C$DW$T$11)
     581                    .dwattr $C$DW$65, DW_AT_external
     582                    .dwattr $C$DW$65, DW_AT_decl_file("..\CDC.h")
     583                    .dwattr $C$DW$65, DW_AT_decl_line(0x31)
     584                    .dwattr $C$DW$65, DW_AT_decl_column(0x0e)
     585                    .global dataSR2
     586 000004               .data
     587                    .align  2
     588                    .elfsym dataSR2,SYM_SIZE(2)
     589 000004       dataSR2:
     590 000004 0000          .bits   0,16                    ; dataSR2 @ 0
     591            
     592            $C$DW$66        .dwtag  DW_TAG_variable, DW_AT_name("dataSR2")
     593                    .dwattr $C$DW$66, DW_AT_TI_symbol_name("dataSR2")
     594                    .dwattr $C$DW$66, DW_AT_location[DW_OP_addr dataSR2]
     595                    .dwattr $C$DW$66, DW_AT_type(*$C$DW$T$11)
     596                    .dwattr $C$DW$66, DW_AT_external
     597                    .dwattr $C$DW$66, DW_AT_decl_file("..\CDC.h")
     598                    .dwattr $C$DW$66, DW_AT_decl_line(0x32)
     599                    .dwattr $C$DW$66, DW_AT_decl_column(0x0e)
     600                    .global iSR
     601 000006               .data
     602                    .align  1
     603                    .elfsym iSR,SYM_SIZE(1)
     604 000006       iSR:
MSP430 Assembler PC v4.2.1 Sat Jan 28 11:33:17 2017

Tools Copyright (c) 2003-2013 Texas Instruments Incorporated
C:\Users\mauricio\AppData\Local\Temp\0876010                         PAGE   12

     605 000006 0000          .bits   0,8                     ; iSR @ 0
     606            
     607            $C$DW$67        .dwtag  DW_TAG_variable, DW_AT_name("iSR")
     608                    .dwattr $C$DW$67, DW_AT_TI_symbol_name("iSR")
     609                    .dwattr $C$DW$67, DW_AT_location[DW_OP_addr iSR]
     610                    .dwattr $C$DW$67, DW_AT_type(*$C$DW$T$6)
     611                    .dwattr $C$DW$67, DW_AT_external
     612                    .dwattr $C$DW$67, DW_AT_decl_file("..\CDC.h")
     613                    .dwattr $C$DW$67, DW_AT_decl_line(0x33)
     614                    .dwattr $C$DW$67, DW_AT_decl_column(0x10)
     615                    .global scratchpad
     616                    .common scratchpad,10,2
     617            $C$DW$68        .dwtag  DW_TAG_variable, DW_AT_name("scratchpad")
     618                    .dwattr $C$DW$68, DW_AT_TI_symbol_name("scratchpad")
     619                    .dwattr $C$DW$68, DW_AT_location[DW_OP_addr scratchpad]
     620                    .dwattr $C$DW$68, DW_AT_type(*$C$DW$T$37)
     621                    .dwattr $C$DW$68, DW_AT_external
     622                    .dwattr $C$DW$68, DW_AT_decl_file("../main.c")
     623                    .dwattr $C$DW$68, DW_AT_decl_line(0x09)
     624                    .dwattr $C$DW$68, DW_AT_decl_column(0x0f)
     625                    .global i
     626                    .common i,1,1
     627            $C$DW$69        .dwtag  DW_TAG_variable, DW_AT_name("i")
     628                    .dwattr $C$DW$69, DW_AT_TI_symbol_name("i")
     629                    .dwattr $C$DW$69, DW_AT_location[DW_OP_addr i]
     630                    .dwattr $C$DW$69, DW_AT_type(*$C$DW$T$6)
     631                    .dwattr $C$DW$69, DW_AT_external
     632                    .dwattr $C$DW$69, DW_AT_decl_file("../main.c")
     633                    .dwattr $C$DW$69, DW_AT_decl_line(0x09)
     634                    .dwattr $C$DW$69, DW_AT_decl_column(0x1e)
     635            ;       C:\ti\ccsv5\tools\compiler\msp430_4.2.1\bin\opt430.exe C:\\Users\\mauricio\\AppData\\Local\\Te
     636 000000               .sect   ".text:sd_"
     637                    .align  2
     638                    .clink
     639                    .global sd_
     640            
     641            $C$DW$70        .dwtag  DW_TAG_subprogram, DW_AT_name("sd_")
     642                    .dwattr $C$DW$70, DW_AT_low_pc(sd_)
     643                    .dwattr $C$DW$70, DW_AT_high_pc(0x00)
     644                    .dwattr $C$DW$70, DW_AT_TI_symbol_name("sd_")
     645                    .dwattr $C$DW$70, DW_AT_external
     646                    .dwattr $C$DW$70, DW_AT_TI_begin_file("..\CDC.h")
     647                    .dwattr $C$DW$70, DW_AT_TI_begin_line(0x35)
     648                    .dwattr $C$DW$70, DW_AT_TI_begin_column(0x06)
     649                    .dwattr $C$DW$70, DW_AT_decl_file("..\CDC.h")
     650                    .dwattr $C$DW$70, DW_AT_decl_line(0x35)
     651                    .dwattr $C$DW$70, DW_AT_decl_column(0x06)
     652                    .dwattr $C$DW$70, DW_AT_TI_max_frame_size(0x02)
     653                    .dwpsn  file "..\CDC.h",line 53,column 20,is_stmt,address sd_,isa 0
     654            
     655                    .dwfde $C$DW$CIE, sd_
     656            $C$DW$71        .dwtag  DW_TAG_formal_parameter, DW_AT_name("dato")
     657                    .dwattr $C$DW$71, DW_AT_TI_symbol_name("dato")
     658                    .dwattr $C$DW$71, DW_AT_type(*$C$DW$T$6)
     659                    .dwattr $C$DW$71, DW_AT_location[DW_OP_reg12]
MSP430 Assembler PC v4.2.1 Sat Jan 28 11:33:17 2017

Tools Copyright (c) 2003-2013 Texas Instruments Incorporated
C:\Users\mauricio\AppData\Local\Temp\0876010                         PAGE   13

     660            
     661            ;*****************************************************************************
     662            ;* FUNCTION NAME: sd_                                                        *
     663            ;*                                                                           *
     664            ;*   Regs Modified     : SP,SR                                               *
     665            ;*   Regs Used         : SP,SR,r12                                           *
     666            ;*   Local Frame Size  : 0 Args + 0 Auto + 0 Save = 0 byte                   *
     667            ;*****************************************************************************
     668 000000       sd_:
     669            ;* --------------------------------------------------------------------------*
     670                    .dwcfi  cfa_offset, 2
     671                    .dwcfi  save_reg_to_mem, 16, -2
     672            ;* r12   assigned to dato
     673            $C$DW$72        .dwtag  DW_TAG_variable, DW_AT_name("dato")
     674                    .dwattr $C$DW$72, DW_AT_TI_symbol_name("dato")
     675                    .dwattr $C$DW$72, DW_AT_type(*$C$DW$T$6)
     676                    .dwattr $C$DW$72, DW_AT_location[DW_OP_reg12]
     677                    .dwpsn  file "..\CDC.h",line 53,column 21,is_stmt,isa 0
     678 000000 4CC2          MOV.B     r12,&UCA0TXBUF+0      ; [] |53| 
         000002 0000!
     679            ;* --------------------------------------------------------------------------*
     680            ;*   BEGIN LOOP $C$L1
     681            ;*
     682            ;*   Loop source line                : 53
     683            ;*   Loop closing brace source line  : 53
     684            ;*   Known Minimum Trip Count        : 1
     685            ;*   Known Maximum Trip Count        : 4294967295
     686            ;*   Known Max Trip Count Factor     : 1
     687            ;* --------------------------------------------------------------------------*
     688 000004       $C$L1:    
     689                    .dwpsn  file "..\CDC.h",line 53,column 45,is_stmt,isa 0
     690 000004 B3E2          BIT.B     #2,&IFG2+0            ; [] |53| 
         000006 0000!
     691 000008 27FD          JEQ       $C$L1                 ; [] |53| 
     692                                                      ; [] |53| 
     693            ;* --------------------------------------------------------------------------*
     694                    .dwpsn  file "..\CDC.h",line 53,column 64,is_stmt,isa 0
     695            $C$DW$73        .dwtag  DW_TAG_TI_branch
     696                    .dwattr $C$DW$73, DW_AT_low_pc(0x00)
     697                    .dwattr $C$DW$73, DW_AT_TI_return
     698 00000a 4130          RET       ; [] 
     699                    ; [] 
     700                    .dwattr $C$DW$70, DW_AT_TI_end_file("..\CDC.h")
     701                    .dwattr $C$DW$70, DW_AT_TI_end_line(0x35)
     702                    .dwattr $C$DW$70, DW_AT_TI_end_column(0x40)
     703                    .dwendentry
     704                    .dwendtag $C$DW$70
     705            
     706 000000               .sect   ".text:string2int"
     707                    .align  2
     708                    .clink
     709                    .global string2int
     710            
     711            $C$DW$74        .dwtag  DW_TAG_subprogram, DW_AT_name("string2int")
     712                    .dwattr $C$DW$74, DW_AT_low_pc(string2int)
MSP430 Assembler PC v4.2.1 Sat Jan 28 11:33:17 2017

Tools Copyright (c) 2003-2013 Texas Instruments Incorporated
C:\Users\mauricio\AppData\Local\Temp\0876010                         PAGE   14

     713                    .dwattr $C$DW$74, DW_AT_high_pc(0x00)
     714                    .dwattr $C$DW$74, DW_AT_TI_symbol_name("string2int")
     715                    .dwattr $C$DW$74, DW_AT_external
     716                    .dwattr $C$DW$74, DW_AT_type(*$C$DW$T$10)
     717                    .dwattr $C$DW$74, DW_AT_TI_begin_file("..\CDC.h")
     718                    .dwattr $C$DW$74, DW_AT_TI_begin_line(0x37)
     719                    .dwattr $C$DW$74, DW_AT_TI_begin_column(0x05)
     720                    .dwattr $C$DW$74, DW_AT_decl_file("..\CDC.h")
     721                    .dwattr $C$DW$74, DW_AT_decl_line(0x37)
     722                    .dwattr $C$DW$74, DW_AT_decl_column(0x05)
     723                    .dwattr $C$DW$74, DW_AT_TI_max_frame_size(0x02)
     724                    .dwpsn  file "..\CDC.h",line 56,column 1,is_stmt,address string2int,isa 0
     725            
     726                    .dwfde $C$DW$CIE, string2int
     727            $C$DW$75        .dwtag  DW_TAG_formal_parameter, DW_AT_name("iamstring")
     728                    .dwattr $C$DW$75, DW_AT_TI_symbol_name("iamstring")
     729                    .dwattr $C$DW$75, DW_AT_type(*$C$DW$T$6)
     730                    .dwattr $C$DW$75, DW_AT_location[DW_OP_reg12]
     731            
     732            ;*****************************************************************************
     733            ;* FUNCTION NAME: string2int                                                 *
     734            ;*                                                                           *
     735            ;*   Regs Modified     : SP,SR,r12                                           *
     736            ;*   Regs Used         : SP,SR,r12                                           *
     737            ;*   Local Frame Size  : 0 Args + 0 Auto + 0 Save = 0 byte                   *
     738            ;*****************************************************************************
     739 000000       string2int:
     740            ;* --------------------------------------------------------------------------*
     741                    .dwcfi  cfa_offset, 2
     742                    .dwcfi  save_reg_to_mem, 16, -2
     743            ;* r12   assigned to iamstring
     744            $C$DW$76        .dwtag  DW_TAG_variable, DW_AT_name("iamstring")
     745                    .dwattr $C$DW$76, DW_AT_TI_symbol_name("iamstring")
     746                    .dwattr $C$DW$76, DW_AT_type(*$C$DW$T$6)
     747                    .dwattr $C$DW$76, DW_AT_location[DW_OP_reg12]
     748                    .dwpsn  file "..\CDC.h",line 57,column 21,is_stmt,isa 0
     749 000000 4C4C          MOV.B     r12,r12               ; [] |57| 
     750 000002 803C          SUB.W     #48,r12               ; [] |57| 
         000004 0030 
     751                    .dwpsn  file "..\CDC.h",line 59,column 2,is_stmt,isa 0
     752                    .dwpsn  file "..\CDC.h",line 60,column 1,is_stmt,isa 0
     753            $C$DW$77        .dwtag  DW_TAG_TI_branch
     754                    .dwattr $C$DW$77, DW_AT_low_pc(0x00)
     755                    .dwattr $C$DW$77, DW_AT_TI_return
     756 000006 4130          RET       ; [] 
     757                    ; [] 
     758                    .dwattr $C$DW$74, DW_AT_TI_end_file("..\CDC.h")
     759                    .dwattr $C$DW$74, DW_AT_TI_end_line(0x3c)
     760                    .dwattr $C$DW$74, DW_AT_TI_end_column(0x01)
     761                    .dwendentry
     762                    .dwendtag $C$DW$74
     763            
     764 000000               .sect   ".text:readint"
     765                    .align  2
     766                    .clink
MSP430 Assembler PC v4.2.1 Sat Jan 28 11:33:17 2017

Tools Copyright (c) 2003-2013 Texas Instruments Incorporated
C:\Users\mauricio\AppData\Local\Temp\0876010                         PAGE   15

     767                    .global readint
     768            
     769            $C$DW$78        .dwtag  DW_TAG_subprogram, DW_AT_name("readint")
     770                    .dwattr $C$DW$78, DW_AT_low_pc(readint)
     771                    .dwattr $C$DW$78, DW_AT_high_pc(0x00)
     772                    .dwattr $C$DW$78, DW_AT_TI_symbol_name("readint")
     773                    .dwattr $C$DW$78, DW_AT_external
     774                    .dwattr $C$DW$78, DW_AT_TI_begin_file("..\CDC.h")
     775                    .dwattr $C$DW$78, DW_AT_TI_begin_line(0x3e)
     776                    .dwattr $C$DW$78, DW_AT_TI_begin_column(0x06)
     777                    .dwattr $C$DW$78, DW_AT_decl_file("..\CDC.h")
     778                    .dwattr $C$DW$78, DW_AT_decl_line(0x3e)
     779                    .dwattr $C$DW$78, DW_AT_decl_column(0x06)
     780                    .dwattr $C$DW$78, DW_AT_TI_max_frame_size(0x02)
     781                    .dwpsn  file "..\CDC.h",line 62,column 34,is_stmt,address readint,isa 0
     782            
     783                    .dwfde $C$DW$CIE, readint
     784            $C$DW$79        .dwtag  DW_TAG_formal_parameter, DW_AT_name("dataSR")
     785                    .dwattr $C$DW$79, DW_AT_TI_symbol_name("dataSR")
     786                    .dwattr $C$DW$79, DW_AT_type(*$C$DW$T$11)
     787                    .dwattr $C$DW$79, DW_AT_location[DW_OP_reg12]
     788            
     789            ;*****************************************************************************
     790            ;* FUNCTION NAME: readint                                                    *
     791            ;*                                                                           *
     792            ;*   Regs Modified     : SP,SR,r12,r13,r14,r15                               *
     793            ;*   Regs Used         : SP,SR,r12,r13,r14,r15                               *
     794            ;*   Local Frame Size  : 0 Args + 0 Auto + 0 Save = 0 byte                   *
     795            ;*****************************************************************************
     796 000000       readint:
     797            ;* --------------------------------------------------------------------------*
     798                    .dwcfi  cfa_offset, 2
     799                    .dwcfi  save_reg_to_mem, 16, -2
     800            ;* r15   assigned to dataSR
     801            $C$DW$80        .dwtag  DW_TAG_variable, DW_AT_name("dataSR")
     802                    .dwattr $C$DW$80, DW_AT_TI_symbol_name("dataSR")
     803                    .dwattr $C$DW$80, DW_AT_type(*$C$DW$T$11)
     804                    .dwattr $C$DW$80, DW_AT_location[DW_OP_reg15]
     805 000000 4C0F          MOV.W     r12,r15               ; [] |62| 
     806                    .dwpsn  file "..\CDC.h",line 62,column 36,is_stmt,isa 0
     807 000002 90F2          CMP.B     #5,&iSR+0             ; [] |62| 
         000004 0005 
         000006 0000!
     808 000008 240E          JEQ       $C$L2                 ; [] |62| 
     809                                                      ; [] |62| 
     810            ;* --------------------------------------------------------------------------*
     811                    .dwpsn  file "..\CDC.h",line 62,column 127,is_stmt,isa 0
     812 00000a 421C          MOV.W     &dataSR1+0,r12        ; [] |62| 
         00000c 0000!
     813 00000e 403D          MOV.W     #10,r13               ; [] |62| 
         000010 000A 
     814            $C$DW$81        .dwtag  DW_TAG_TI_branch
     815                    .dwattr $C$DW$81, DW_AT_low_pc(0x00)
     816                    .dwattr $C$DW$81, DW_AT_name("__mspabi_mpyi")
     817                    .dwattr $C$DW$81, DW_AT_TI_call
MSP430 Assembler PC v4.2.1 Sat Jan 28 11:33:17 2017

Tools Copyright (c) 2003-2013 Texas Instruments Incorporated
C:\Users\mauricio\AppData\Local\Temp\0876010                         PAGE   16

     818 000012 12B0          CALL      #__mspabi_mpyi        ; [] |62| 
         000014 0000!
     819                                                      ; [] |62| 
     820 000016 5F0C          ADD.W     r15,r12               ; [] |62| 
     821 000018 803C          SUB.W     #48,r12               ; [] |62| 
         00001a 0030 
     822 00001c 4C82          MOV.W     r12,&dataSR1+0        ; [] |62| 
         00001e 0000!
     823                    .dwpsn  file "..\CDC.h",line 62,column 161,is_stmt,isa 0
     824 000020 53D2          ADD.B     #1,&iSR+0             ; [] |62| 
         000022 0000!
     825 000024 3C0F          JMP       $C$L3                 ; [] |62| 
     826                                                      ; [] |62| 
     827            ;* --------------------------------------------------------------------------*
     828 000026       $C$L2:    
     829                    .dwpsn  file "..\CDC.h",line 62,column 47,is_stmt,isa 0
     830 000026 43C2          MOV.B     #0,&iSR+0             ; [] |62| 
         000028 0000!
     831                    .dwpsn  file "..\CDC.h",line 62,column 55,is_stmt,isa 0
     832 00002a 4292          MOV.W     &dataSR1+0,&dataSR2+0 ; [] |62| 
         00002c 0000!
         00002e 0000!
     833                    .dwpsn  file "..\CDC.h",line 62,column 71,is_stmt,isa 0
     834 000030 4292          MOV.W     &dataSR2+0,&TA0CCR0+0 ; [] |62| 
         000032 0000!
         000034 0000!
     835                    .dwpsn  file "..\CDC.h",line 62,column 84,is_stmt,isa 0
     836 000036 4382          MOV.W     #0,&dataSR1+0         ; [] |62| 
         000038 0000!
     837                    .dwpsn  file "..\CDC.h",line 62,column 94,is_stmt,isa 0
     838 00003a D0B2          OR.W      #16,&TA0CCTL0+0       ; [] |62| 
         00003c 0010 
         00003e 0000!
     839                    .dwpsn  file "..\CDC.h",line 62,column 109,is_stmt,isa 0
     840 000040 D3A2          OR.W      #2,&TA0CTL+0          ; [] |62| 
         000042 0000!
     841            ;* --------------------------------------------------------------------------*
     842 000044       $C$L3:    
     843                    .dwpsn  file "..\CDC.h",line 62,column 168,is_stmt,isa 0
     844            $C$DW$82        .dwtag  DW_TAG_TI_branch
     845                    .dwattr $C$DW$82, DW_AT_low_pc(0x00)
     846                    .dwattr $C$DW$82, DW_AT_TI_return
     847 000044 4130          RET       ; [] 
     848                    ; [] 
     849                    .dwattr $C$DW$78, DW_AT_TI_end_file("..\CDC.h")
     850                    .dwattr $C$DW$78, DW_AT_TI_end_line(0x3e)
     851                    .dwattr $C$DW$78, DW_AT_TI_end_column(0xa8)
     852                    .dwendentry
     853                    .dwendtag $C$DW$78
     854            
     855 000000               .sect   ".text:ec"
     856                    .align  2
     857                    .clink
     858                    .global ec
     859            
MSP430 Assembler PC v4.2.1 Sat Jan 28 11:33:17 2017

Tools Copyright (c) 2003-2013 Texas Instruments Incorporated
C:\Users\mauricio\AppData\Local\Temp\0876010                         PAGE   17

     860            $C$DW$83        .dwtag  DW_TAG_subprogram, DW_AT_name("ec")
     861                    .dwattr $C$DW$83, DW_AT_low_pc(ec)
     862                    .dwattr $C$DW$83, DW_AT_high_pc(0x00)
     863                    .dwattr $C$DW$83, DW_AT_TI_symbol_name("ec")
     864                    .dwattr $C$DW$83, DW_AT_external
     865                    .dwattr $C$DW$83, DW_AT_TI_begin_file("..\CDC.h")
     866                    .dwattr $C$DW$83, DW_AT_TI_begin_line(0x42)
     867                    .dwattr $C$DW$83, DW_AT_TI_begin_column(0x06)
     868                    .dwattr $C$DW$83, DW_AT_decl_file("..\CDC.h")
     869                    .dwattr $C$DW$83, DW_AT_decl_line(0x42)
     870                    .dwattr $C$DW$83, DW_AT_decl_column(0x06)
     871                    .dwattr $C$DW$83, DW_AT_TI_max_frame_size(0x02)
     872                    .dwpsn  file "..\CDC.h",line 67,column 1,is_stmt,address ec,isa 0
     873            
     874                    .dwfde $C$DW$CIE, ec
     875            $C$DW$84        .dwtag  DW_TAG_formal_parameter, DW_AT_name("cadena")
     876                    .dwattr $C$DW$84, DW_AT_TI_symbol_name("cadena")
     877                    .dwattr $C$DW$84, DW_AT_type(*$C$DW$T$25)
     878                    .dwattr $C$DW$84, DW_AT_location[DW_OP_reg12]
     879            
     880            ;*****************************************************************************
     881            ;* FUNCTION NAME: ec                                                         *
     882            ;*                                                                           *
     883            ;*   Regs Modified     : SP,SR,r12,r15                                       *
     884            ;*   Regs Used         : SP,SR,r12,r15                                       *
     885            ;*   Local Frame Size  : 0 Args + 0 Auto + 0 Save = 0 byte                   *
     886            ;*****************************************************************************
     887 000000       ec:
     888            ;* --------------------------------------------------------------------------*
     889                    .dwcfi  cfa_offset, 2
     890                    .dwcfi  save_reg_to_mem, 16, -2
     891            ;* r12   assigned to cadena
     892            $C$DW$85        .dwtag  DW_TAG_variable, DW_AT_name("cadena")
     893                    .dwattr $C$DW$85, DW_AT_TI_symbol_name("cadena")
     894                    .dwattr $C$DW$85, DW_AT_type(*$C$DW$T$25)
     895                    .dwattr $C$DW$85, DW_AT_location[DW_OP_reg12]
     896            ;* r15   assigned to c
     897            $C$DW$86        .dwtag  DW_TAG_variable, DW_AT_name("c")
     898                    .dwattr $C$DW$86, DW_AT_TI_symbol_name("c")
     899                    .dwattr $C$DW$86, DW_AT_type(*$C$DW$T$25)
     900                    .dwattr $C$DW$86, DW_AT_location[DW_OP_reg15]
     901                    .dwpsn  file "..\CDC.h",line 69,column 2,is_stmt,isa 0
     902 000000 4C0F          MOV.W     r12,r15               ; [] |69| 
     903                    .dwpsn  file "..\CDC.h",line 70,column 2,is_stmt,isa 0
     904 000002 3C04          JMP       $C$L5                 ; [] |70| 
     905                                                      ; [] |70| 
     906            ;* --------------------------------------------------------------------------*
     907 000004       $C$L4:    
     908                    .dwpsn  file "..\CDC.h",line 72,column 3,is_stmt,isa 0
     909 000004 4F6C          MOV.B     @r15,r12              ; [] |72| 
     910            $C$DW$87        .dwtag  DW_TAG_TI_branch
     911                    .dwattr $C$DW$87, DW_AT_low_pc(0x00)
     912                    .dwattr $C$DW$87, DW_AT_name("sd_")
     913                    .dwattr $C$DW$87, DW_AT_TI_call
     914 000006 12B0          CALL      #sd_                  ; [] |72| 
MSP430 Assembler PC v4.2.1 Sat Jan 28 11:33:17 2017

Tools Copyright (c) 2003-2013 Texas Instruments Incorporated
C:\Users\mauricio\AppData\Local\Temp\0876010                         PAGE   18

         000008 0000!
     915                                                      ; [] |72| 
     916                    .dwpsn  file "..\CDC.h",line 73,column 3,is_stmt,isa 0
     917 00000a 531F          ADD.W     #1,r15                ; [] |73| 
     918            ;* --------------------------------------------------------------------------*
     919            ;*   BEGIN LOOP $C$L5
     920            ;* --------------------------------------------------------------------------*
     921 00000c       $C$L5:    
     922                    .dwpsn  file "..\CDC.h",line 70,column 9,is_stmt,isa 0
     923 00000c 930F          TST.W     r15                   ; [] |70| 
     924 00000e 2403          JEQ       $C$L6                 ; [] |70| 
     925                                                      ; [] |70| 
     926            ;* --------------------------------------------------------------------------*
     927 000010 93CF          TST.B     0(r15)                ; [] |70| 
         000012 0000 
     928 000014 23F7          JNE       $C$L4                 ; [] |70| 
     929                                                      ; [] |70| 
     930            ;* --------------------------------------------------------------------------*
     931 000016       $C$L6:    
     932                    .dwpsn  file "..\CDC.h",line 75,column 1,is_stmt,isa 0
     933            $C$DW$88        .dwtag  DW_TAG_TI_branch
     934                    .dwattr $C$DW$88, DW_AT_low_pc(0x00)
     935                    .dwattr $C$DW$88, DW_AT_TI_return
     936 000016 4130          RET       ; [] 
     937                    ; [] 
     938                    .dwattr $C$DW$83, DW_AT_TI_end_file("..\CDC.h")
     939                    .dwattr $C$DW$83, DW_AT_TI_end_line(0x4b)
     940                    .dwattr $C$DW$83, DW_AT_TI_end_column(0x01)
     941                    .dwendentry
     942                    .dwendtag $C$DW$83
     943            
     944 000000               .sect   ".text:twoc2dec"
     945                    .align  2
     946                    .clink
     947                    .global twoc2dec
     948            
     949            $C$DW$89        .dwtag  DW_TAG_subprogram, DW_AT_name("twoc2dec")
     950                    .dwattr $C$DW$89, DW_AT_low_pc(twoc2dec)
     951                    .dwattr $C$DW$89, DW_AT_high_pc(0x00)
     952                    .dwattr $C$DW$89, DW_AT_TI_symbol_name("twoc2dec")
     953                    .dwattr $C$DW$89, DW_AT_external
     954                    .dwattr $C$DW$89, DW_AT_type(*$C$DW$T$10)
     955                    .dwattr $C$DW$89, DW_AT_TI_begin_file("..\CDC.h")
     956                    .dwattr $C$DW$89, DW_AT_TI_begin_line(0x4c)
     957                    .dwattr $C$DW$89, DW_AT_TI_begin_column(0x05)
     958                    .dwattr $C$DW$89, DW_AT_decl_file("..\CDC.h")
     959                    .dwattr $C$DW$89, DW_AT_decl_line(0x4c)
     960                    .dwattr $C$DW$89, DW_AT_decl_column(0x05)
     961                    .dwattr $C$DW$89, DW_AT_TI_max_frame_size(0x02)
     962                    .dwpsn  file "..\CDC.h",line 77,column 3,is_stmt,address twoc2dec,isa 0
     963            
     964                    .dwfde $C$DW$CIE, twoc2dec
     965            $C$DW$90        .dwtag  DW_TAG_formal_parameter, DW_AT_name("twoc")
     966                    .dwattr $C$DW$90, DW_AT_TI_symbol_name("twoc")
     967                    .dwattr $C$DW$90, DW_AT_type(*$C$DW$T$11)
MSP430 Assembler PC v4.2.1 Sat Jan 28 11:33:17 2017

Tools Copyright (c) 2003-2013 Texas Instruments Incorporated
C:\Users\mauricio\AppData\Local\Temp\0876010                         PAGE   19

     968                    .dwattr $C$DW$90, DW_AT_location[DW_OP_reg12]
     969            
     970            ;*****************************************************************************
     971            ;* FUNCTION NAME: twoc2dec                                                   *
     972            ;*                                                                           *
     973            ;*   Regs Modified     : SP,SR,r12                                           *
     974            ;*   Regs Used         : SP,SR,r12                                           *
     975            ;*   Local Frame Size  : 0 Args + 0 Auto + 0 Save = 0 byte                   *
     976            ;*****************************************************************************
     977 000000       twoc2dec:
     978            ;* --------------------------------------------------------------------------*
     979                    .dwcfi  cfa_offset, 2
     980                    .dwcfi  save_reg_to_mem, 16, -2
     981            ;* r12   assigned to twoc
     982            $C$DW$91        .dwtag  DW_TAG_variable, DW_AT_name("twoc")
     983                    .dwattr $C$DW$91, DW_AT_TI_symbol_name("twoc")
     984                    .dwattr $C$DW$91, DW_AT_type(*$C$DW$T$11)
     985                    .dwattr $C$DW$91, DW_AT_location[DW_OP_reg12]
     986                    .dwpsn  file "..\CDC.h",line 78,column 4,is_stmt,isa 0
     987 000000 40F2          MOV.B     #43,&signo+0          ; [] |78| 
         000002 002B 
         000004 0000!
     988                    .dwpsn  file "..\CDC.h",line 79,column 4,is_stmt,isa 0
     989 000006 930C          TST.W     r12                   ; [] |79| 
     990 000008 3405          JGE       $C$L7                 ; [] |79| 
     991                                                      ; [] |79| 
     992            ;* --------------------------------------------------------------------------*
     993                    .dwpsn  file "..\CDC.h",line 81,column 4,is_stmt,isa 0
     994 00000a E33C          INV.W     r12                   ; [] |81| 
     995 00000c 531C          ADD.W     #1,r12                ; [] |81| 
     996                    .dwpsn  file "..\CDC.h",line 82,column 4,is_stmt,isa 0
     997 00000e 40F2          MOV.B     #45,&signo+0          ; [] |82| 
         000010 002D 
         000012 0000!
     998            ;* --------------------------------------------------------------------------*
     999 000014       $C$L7:    
    1000                    .dwpsn  file "..\CDC.h",line 84,column 4,is_stmt,isa 0
    1001                    .dwpsn  file "..\CDC.h",line 85,column 3,is_stmt,isa 0
    1002            $C$DW$92        .dwtag  DW_TAG_TI_branch
    1003                    .dwattr $C$DW$92, DW_AT_low_pc(0x00)
    1004                    .dwattr $C$DW$92, DW_AT_TI_return
    1005 000014 4130          RET       ; [] 
    1006                    ; [] 
    1007                    .dwattr $C$DW$89, DW_AT_TI_end_file("..\CDC.h")
    1008                    .dwattr $C$DW$89, DW_AT_TI_end_line(0x55)
    1009                    .dwattr $C$DW$89, DW_AT_TI_end_column(0x03)
    1010                    .dwendentry
    1011                    .dwendtag $C$DW$89
    1012            
    1013 000000               .sect   ".text:c2ui"
    1014                    .align  2
    1015                    .clink
    1016                    .global c2ui
    1017            
    1018            $C$DW$93        .dwtag  DW_TAG_subprogram, DW_AT_name("c2ui")
MSP430 Assembler PC v4.2.1 Sat Jan 28 11:33:17 2017

Tools Copyright (c) 2003-2013 Texas Instruments Incorporated
C:\Users\mauricio\AppData\Local\Temp\0876010                         PAGE   20

    1019                    .dwattr $C$DW$93, DW_AT_low_pc(c2ui)
    1020                    .dwattr $C$DW$93, DW_AT_high_pc(0x00)
    1021                    .dwattr $C$DW$93, DW_AT_TI_symbol_name("c2ui")
    1022                    .dwattr $C$DW$93, DW_AT_external
    1023                    .dwattr $C$DW$93, DW_AT_type(*$C$DW$T$11)
    1024                    .dwattr $C$DW$93, DW_AT_TI_begin_file("..\CDC.h")
    1025                    .dwattr $C$DW$93, DW_AT_TI_begin_line(0x58)
    1026                    .dwattr $C$DW$93, DW_AT_TI_begin_column(0x0e)
    1027                    .dwattr $C$DW$93, DW_AT_decl_file("..\CDC.h")
    1028                    .dwattr $C$DW$93, DW_AT_decl_line(0x58)
    1029                    .dwattr $C$DW$93, DW_AT_decl_column(0x0e)
    1030                    .dwattr $C$DW$93, DW_AT_TI_max_frame_size(0x02)
    1031                    .dwpsn  file "..\CDC.h",line 88,column 31,is_stmt,address c2ui,isa 0
    1032            
    1033                    .dwfde $C$DW$CIE, c2ui
    1034            $C$DW$94        .dwtag  DW_TAG_formal_parameter, DW_AT_name("c2uc")
    1035                    .dwattr $C$DW$94, DW_AT_TI_symbol_name("c2uc")
    1036                    .dwattr $C$DW$94, DW_AT_type(*$C$DW$T$25)
    1037                    .dwattr $C$DW$94, DW_AT_location[DW_OP_reg12]
    1038            
    1039            ;*****************************************************************************
    1040            ;* FUNCTION NAME: c2ui                                                       *
    1041            ;*                                                                           *
    1042            ;*   Regs Modified     : SP,SR,r11,r12,r13,r14,r15                           *
    1043            ;*   Regs Used         : SP,SR,r11,r12,r13,r14,r15                           *
    1044            ;*   Local Frame Size  : 0 Args + 0 Auto + 0 Save = 0 byte                   *
    1045            ;*****************************************************************************
    1046 000000       c2ui:
    1047            ;* --------------------------------------------------------------------------*
    1048                    .dwcfi  cfa_offset, 2
    1049                    .dwcfi  save_reg_to_mem, 16, -2
    1050            ;* r12   assigned to c2uc
    1051            $C$DW$95        .dwtag  DW_TAG_variable, DW_AT_name("c2uc")
    1052                    .dwattr $C$DW$95, DW_AT_TI_symbol_name("c2uc")
    1053                    .dwattr $C$DW$95, DW_AT_type(*$C$DW$T$25)
    1054                    .dwattr $C$DW$95, DW_AT_location[DW_OP_reg12]
    1055            ;* r11   assigned to c2ucp
    1056            $C$DW$96        .dwtag  DW_TAG_variable, DW_AT_name("c2ucp")
    1057                    .dwattr $C$DW$96, DW_AT_TI_symbol_name("c2ucp")
    1058                    .dwattr $C$DW$96, DW_AT_type(*$C$DW$T$25)
    1059                    .dwattr $C$DW$96, DW_AT_location[DW_OP_reg11]
    1060            ;* r12   assigned to iamres
    1061            $C$DW$97        .dwtag  DW_TAG_variable, DW_AT_name("iamres")
    1062                    .dwattr $C$DW$97, DW_AT_TI_symbol_name("iamres")
    1063                    .dwattr $C$DW$97, DW_AT_type(*$C$DW$T$11)
    1064                    .dwattr $C$DW$97, DW_AT_location[DW_OP_reg12]
    1065                    .dwpsn  file "..\CDC.h",line 90,column 2,is_stmt,isa 0
    1066 000000 4C0B          MOV.W     r12,r11               ; [] |90| 
    1067                    .dwpsn  file "..\CDC.h",line 91,column 21,is_stmt,isa 0
    1068 000002 430C          MOV.W     #0,r12                ; [] |91| 
    1069                    .dwpsn  file "..\CDC.h",line 93,column 2,is_stmt,isa 0
    1070 000004 3C09          JMP       $C$L9                 ; [] |93| 
    1071                                                      ; [] |93| 
    1072            ;* --------------------------------------------------------------------------*
    1073 000006       $C$L8:    
MSP430 Assembler PC v4.2.1 Sat Jan 28 11:33:17 2017

Tools Copyright (c) 2003-2013 Texas Instruments Incorporated
C:\Users\mauricio\AppData\Local\Temp\0876010                         PAGE   21

    1074                    .dwpsn  file "..\CDC.h",line 94,column 3,is_stmt,isa 0
    1075 000006 403D          MOV.W     #10,r13               ; [] |94| 
         000008 000A 
    1076            $C$DW$98        .dwtag  DW_TAG_TI_branch
    1077                    .dwattr $C$DW$98, DW_AT_low_pc(0x00)
    1078                    .dwattr $C$DW$98, DW_AT_name("__mspabi_mpyi")
    1079                    .dwattr $C$DW$98, DW_AT_TI_call
    1080 00000a 12B0          CALL      #__mspabi_mpyi        ; [] |94| 
         00000c 0000!
    1081                                                      ; [] |94| 
    1082 00000e 4B6F          MOV.B     @r11,r15              ; [] |94| 
    1083 000010 5F0C          ADD.W     r15,r12               ; [] |94| 
    1084 000012 803C          SUB.W     #48,r12               ; [] |94| 
         000014 0030 
    1085                    .dwpsn  file "..\CDC.h",line 95,column 3,is_stmt,isa 0
    1086 000016 531B          ADD.W     #1,r11                ; [] |95| 
    1087            ;* --------------------------------------------------------------------------*
    1088            ;*   BEGIN LOOP $C$L9
    1089            ;* --------------------------------------------------------------------------*
    1090 000018       $C$L9:    
    1091                    .dwpsn  file "..\CDC.h",line 93,column 8,is_stmt,isa 0
    1092 000018 93CB          TST.B     0(r11)                ; [] |93| 
         00001a 0000 
    1093 00001c 2406          JEQ       $C$L10                ; [] |93| 
    1094                                                      ; [] |93| 
    1095            ;* --------------------------------------------------------------------------*
    1096 00001e 930B          TST.W     r11                   ; [] |93| 
    1097 000020 2404          JEQ       $C$L10                ; [] |93| 
    1098                                                      ; [] |93| 
    1099            ;* --------------------------------------------------------------------------*
    1100 000022 403F          MOV.W     #13,r15               ; [] |93| 
         000024 000D 
    1101 000026 9B6F          CMP.B     @r11,r15              ; [] |93| 
    1102 000028 23EE          JNE       $C$L8                 ; [] |93| 
    1103                                                      ; [] |93| 
    1104            ;* --------------------------------------------------------------------------*
    1105 00002a       $C$L10:    
    1106                    .dwpsn  file "..\CDC.h",line 97,column 2,is_stmt,isa 0
    1107                    .dwpsn  file "..\CDC.h",line 98,column 1,is_stmt,isa 0
    1108            $C$DW$99        .dwtag  DW_TAG_TI_branch
    1109                    .dwattr $C$DW$99, DW_AT_low_pc(0x00)
    1110                    .dwattr $C$DW$99, DW_AT_TI_return
    1111 00002a 4130          RET       ; [] 
    1112                    ; [] 
    1113                    .dwattr $C$DW$93, DW_AT_TI_end_file("..\CDC.h")
    1114                    .dwattr $C$DW$93, DW_AT_TI_end_line(0x62)
    1115                    .dwattr $C$DW$93, DW_AT_TI_end_column(0x01)
    1116                    .dwendentry
    1117                    .dwendtag $C$DW$93
    1118            
    1119 000000               .sect   ".text:espacio"
    1120                    .align  2
    1121                    .clink
    1122                    .global espacio
    1123            
MSP430 Assembler PC v4.2.1 Sat Jan 28 11:33:17 2017

Tools Copyright (c) 2003-2013 Texas Instruments Incorporated
C:\Users\mauricio\AppData\Local\Temp\0876010                         PAGE   22

    1124            $C$DW$100       .dwtag  DW_TAG_subprogram, DW_AT_name("espacio")
    1125                    .dwattr $C$DW$100, DW_AT_low_pc(espacio)
    1126                    .dwattr $C$DW$100, DW_AT_high_pc(0x00)
    1127                    .dwattr $C$DW$100, DW_AT_TI_symbol_name("espacio")
    1128                    .dwattr $C$DW$100, DW_AT_external
    1129                    .dwattr $C$DW$100, DW_AT_TI_begin_file("..\CDC.h")
    1130                    .dwattr $C$DW$100, DW_AT_TI_begin_line(0x64)
    1131                    .dwattr $C$DW$100, DW_AT_TI_begin_column(0x06)
    1132                    .dwattr $C$DW$100, DW_AT_decl_file("..\CDC.h")
    1133                    .dwattr $C$DW$100, DW_AT_decl_line(0x64)
    1134                    .dwattr $C$DW$100, DW_AT_decl_column(0x06)
    1135                    .dwattr $C$DW$100, DW_AT_TI_max_frame_size(0x02)
    1136                    .dwpsn  file "..\CDC.h",line 100,column 15,is_stmt,address espacio,isa 0
    1137            
    1138                    .dwfde $C$DW$CIE, espacio
    1139            
    1140            ;*****************************************************************************
    1141            ;* FUNCTION NAME: espacio                                                    *
    1142            ;*                                                                           *
    1143            ;*   Regs Modified     : SP,SR,r12                                           *
    1144            ;*   Regs Used         : SP,SR,r12                                           *
    1145            ;*   Local Frame Size  : 0 Args + 0 Auto + 0 Save = 0 byte                   *
    1146            ;*****************************************************************************
    1147 000000       espacio:
    1148            ;* --------------------------------------------------------------------------*
    1149                    .dwcfi  cfa_offset, 2
    1150                    .dwcfi  save_reg_to_mem, 16, -2
    1151                    .dwpsn  file "..\CDC.h",line 100,column 16,is_stmt,isa 0
    1152 000000 407C          MOV.B     #32,r12               ; [] |100| 
         000002 0020 
    1153            $C$DW$101       .dwtag  DW_TAG_TI_branch
    1154                    .dwattr $C$DW$101, DW_AT_low_pc(0x00)
    1155                    .dwattr $C$DW$101, DW_AT_name("sd_")
    1156                    .dwattr $C$DW$101, DW_AT_TI_call
    1157 000004 12B0          CALL      #sd_                  ; [] |100| 
         000006 0000!
    1158                                                      ; [] |100| 
    1159                    .dwpsn  file "..\CDC.h",line 100,column 25,is_stmt,isa 0
    1160            $C$DW$102       .dwtag  DW_TAG_TI_branch
    1161                    .dwattr $C$DW$102, DW_AT_low_pc(0x00)
    1162                    .dwattr $C$DW$102, DW_AT_TI_return
    1163 000008 4130          RET       ; [] 
    1164                    ; [] 
    1165                    .dwattr $C$DW$100, DW_AT_TI_end_file("..\CDC.h")
    1166                    .dwattr $C$DW$100, DW_AT_TI_end_line(0x64)
    1167                    .dwattr $C$DW$100, DW_AT_TI_end_column(0x19)
    1168                    .dwendentry
    1169                    .dwendtag $C$DW$100
    1170            
    1171 000000               .sect   ".text:printlong"
    1172                    .align  2
    1173                    .clink
    1174                    .global printlong
    1175            
    1176            $C$DW$103       .dwtag  DW_TAG_subprogram, DW_AT_name("printlong")
MSP430 Assembler PC v4.2.1 Sat Jan 28 11:33:17 2017

Tools Copyright (c) 2003-2013 Texas Instruments Incorporated
C:\Users\mauricio\AppData\Local\Temp\0876010                         PAGE   23

    1177                    .dwattr $C$DW$103, DW_AT_low_pc(printlong)
    1178                    .dwattr $C$DW$103, DW_AT_high_pc(0x00)
    1179                    .dwattr $C$DW$103, DW_AT_TI_symbol_name("printlong")
    1180                    .dwattr $C$DW$103, DW_AT_external
    1181                    .dwattr $C$DW$103, DW_AT_TI_begin_file("..\CDC.h")
    1182                    .dwattr $C$DW$103, DW_AT_TI_begin_line(0x66)
    1183                    .dwattr $C$DW$103, DW_AT_TI_begin_column(0x06)
    1184                    .dwattr $C$DW$103, DW_AT_decl_file("..\CDC.h")
    1185                    .dwattr $C$DW$103, DW_AT_decl_line(0x66)
    1186                    .dwattr $C$DW$103, DW_AT_decl_column(0x06)
    1187                    .dwattr $C$DW$103, DW_AT_TI_max_frame_size(0x06)
    1188                    .dwpsn  file "..\CDC.h",line 103,column 1,is_stmt,address printlong,isa 0
    1189            
    1190                    .dwfde $C$DW$CIE, printlong
    1191            $C$DW$104       .dwtag  DW_TAG_formal_parameter, DW_AT_name("longtochar")
    1192                    .dwattr $C$DW$104, DW_AT_TI_symbol_name("longtochar")
    1193                    .dwattr $C$DW$104, DW_AT_type(*$C$DW$T$13)
    1194                    .dwattr $C$DW$104, DW_AT_location[DW_OP_reg12 DW_OP_piece 2 DW_OP_reg13 DW_OP_piece 2]
    1195            
    1196            ;*****************************************************************************
    1197            ;* FUNCTION NAME: printlong                                                  *
    1198            ;*                                                                           *
    1199            ;*   Regs Modified     : SP,SR,r9,r10,r11,r12,r13,r14,r15                    *
    1200            ;*   Regs Used         : SP,SR,r9,r10,r11,r12,r13,r14,r15                    *
    1201            ;*   Local Frame Size  : 0 Args + 0 Auto + 4 Save = 4 byte                   *
    1202            ;*****************************************************************************
    1203 000000       printlong:
    1204            ;* --------------------------------------------------------------------------*
    1205                    .dwcfi  cfa_offset, 2
    1206                    .dwcfi  save_reg_to_mem, 16, -2
    1207 000000 120A          PUSH.W    r10                   ; [] 
    1208                    .dwcfi  cfa_offset, 4
    1209                    .dwcfi  save_reg_to_mem, 10, -4
    1210 000002 1209          PUSH.W    r9                    ; [] 
    1211                    .dwcfi  cfa_offset, 6
    1212                    .dwcfi  save_reg_to_mem, 9, -6
    1213            ;* r9    assigned to longtochar
    1214            $C$DW$105       .dwtag  DW_TAG_variable, DW_AT_name("longtochar")
    1215                    .dwattr $C$DW$105, DW_AT_TI_symbol_name("longtochar")
    1216                    .dwattr $C$DW$105, DW_AT_type(*$C$DW$T$13)
    1217                    .dwattr $C$DW$105, DW_AT_location[DW_OP_reg9 DW_OP_piece 2 DW_OP_reg10 DW_OP_piece 2]
    1218 000004 4C09          MOV.W     r12,r9                ; [] |103| 
    1219 000006 4D0A          MOV.W     r13,r10               ; [] |103| 
    1220                    .dwpsn  file "..\CDC.h",line 104,column 2,is_stmt,isa 0
    1221 000008 403E          MOV.W     #57600,r14            ; [] |104| 
         00000a E100 
    1222 00000c 403F          MOV.W     #1525,r15             ; [] |104| 
         00000e 05F5 
    1223            $C$DW$106       .dwtag  DW_TAG_TI_branch
    1224                    .dwattr $C$DW$106, DW_AT_low_pc(0x00)
    1225                    .dwattr $C$DW$106, DW_AT_name("__mspabi_divul")
    1226                    .dwattr $C$DW$106, DW_AT_TI_call
    1227 000010 12B0          CALL      #__mspabi_divul       ; [] |104| 
         000012 0000!
    1228                                                      ; [] |104| 
MSP430 Assembler PC v4.2.1 Sat Jan 28 11:33:17 2017

Tools Copyright (c) 2003-2013 Texas Instruments Incorporated
C:\Users\mauricio\AppData\Local\Temp\0876010                         PAGE   24

    1229 000014 4C82          MOV.W     r12,&cM+0             ; [] |104| 
         000016 0000!
    1230 000018 4D82          MOV.W     r13,&cM+2             ; [] |104| 
         00001a 0002!
    1231                    .dwpsn  file "..\CDC.h",line 105,column 2,is_stmt,isa 0
    1232 00001c 421C          MOV.W     &cM+0,r12             ; [] |105| 
         00001e 0000!
    1233 000020 403E          MOV.W     #57600,r14            ; [] |105| 
         000022 E100 
    1234 000024 403F          MOV.W     #1525,r15             ; [] |105| 
         000026 05F5 
    1235            $C$DW$107       .dwtag  DW_TAG_TI_branch
    1236                    .dwattr $C$DW$107, DW_AT_low_pc(0x00)
    1237                    .dwattr $C$DW$107, DW_AT_name("__mspabi_mpyl")
    1238                    .dwattr $C$DW$107, DW_AT_TI_call
    1239 000028 12B0          CALL      #__mspabi_mpyl        ; [] |105| 
         00002a 0000!
    1240                                                      ; [] |105| 
    1241 00002c 490E          MOV.W     r9,r14                ; [] |105| 
    1242 00002e 4A0F          MOV.W     r10,r15               ; [] |105| 
    1243 000030 8C0E          SUB.W     r12,r14               ; [] |105| 
    1244 000032 7D0F          SUBC.W    r13,r15               ; [] |105| 
    1245 000034 4E0C          MOV.W     r14,r12               ; [] |105| 
    1246 000036 4F0D          MOV.W     r15,r13               ; [] |105| 
    1247 000038 403E          MOV.W     #38528,r14            ; [] |105| 
         00003a 9680 
    1248 00003c 403F          MOV.W     #152,r15              ; [] |105| 
         00003e 0098 
    1249            $C$DW$108       .dwtag  DW_TAG_TI_branch
    1250                    .dwattr $C$DW$108, DW_AT_low_pc(0x00)
    1251                    .dwattr $C$DW$108, DW_AT_name("__mspabi_divul")
    1252                    .dwattr $C$DW$108, DW_AT_TI_call
    1253 000040 12B0          CALL      #__mspabi_divul       ; [] |105| 
         000042 0000!
    1254                                                      ; [] |105| 
    1255 000044 4C82          MOV.W     r12,&dM+0             ; [] |105| 
         000046 0000!
    1256 000048 4D82          MOV.W     r13,&dM+2             ; [] |105| 
         00004a 0002!
    1257                    .dwpsn  file "..\CDC.h",line 106,column 2,is_stmt,isa 0
    1258 00004c 421C          MOV.W     &cM+0,r12             ; [] |106| 
         00004e 0000!
    1259 000050 421D          MOV.W     &cM+2,r13             ; [] |106| 
         000052 0002!
    1260 000054 403E          MOV.W     #10,r14               ; [] |106| 
         000056 000A 
    1261 000058 430F          MOV.W     #0,r15                ; [] |106| 
    1262            $C$DW$109       .dwtag  DW_TAG_TI_branch
    1263                    .dwattr $C$DW$109, DW_AT_low_pc(0x00)
    1264                    .dwattr $C$DW$109, DW_AT_name("__mspabi_mpyl")
    1265                    .dwattr $C$DW$109, DW_AT_TI_call
    1266 00005a 12B0          CALL      #__mspabi_mpyl        ; [] |106| 
         00005c 0000!
    1267                                                      ; [] |106| 
    1268 00005e 521C          ADD.W     &dM+0,r12             ; [] |106| 
MSP430 Assembler PC v4.2.1 Sat Jan 28 11:33:17 2017

Tools Copyright (c) 2003-2013 Texas Instruments Incorporated
C:\Users\mauricio\AppData\Local\Temp\0876010                         PAGE   25

         000060 0000!
    1269 000062 621D          ADDC.W    &dM+2,r13             ; [] |106| 
         000064 0002!
    1270 000066 403E          MOV.W     #38528,r14            ; [] |106| 
         000068 9680 
    1271 00006a 403F          MOV.W     #152,r15              ; [] |106| 
         00006c 0098 
    1272            $C$DW$110       .dwtag  DW_TAG_TI_branch
    1273                    .dwattr $C$DW$110, DW_AT_low_pc(0x00)
    1274                    .dwattr $C$DW$110, DW_AT_name("__mspabi_mpyl")
    1275                    .dwattr $C$DW$110, DW_AT_TI_call
    1276 00006e 12B0          CALL      #__mspabi_mpyl        ; [] |106| 
         000070 0000!
    1277                                                      ; [] |106| 
    1278 000072 490E          MOV.W     r9,r14                ; [] |106| 
    1279 000074 4A0F          MOV.W     r10,r15               ; [] |106| 
    1280 000076 8C0E          SUB.W     r12,r14               ; [] |106| 
    1281 000078 7D0F          SUBC.W    r13,r15               ; [] |106| 
    1282 00007a 4E0C          MOV.W     r14,r12               ; [] |106| 
    1283 00007c 4F0D          MOV.W     r15,r13               ; [] |106| 
    1284 00007e 403E          MOV.W     #16960,r14            ; [] |106| 
         000080 4240 
    1285 000082 403F          MOV.W     #15,r15               ; [] |106| 
         000084 000F 
    1286            $C$DW$111       .dwtag  DW_TAG_TI_branch
    1287                    .dwattr $C$DW$111, DW_AT_low_pc(0x00)
    1288                    .dwattr $C$DW$111, DW_AT_name("__mspabi_divul")
    1289                    .dwattr $C$DW$111, DW_AT_TI_call
    1290 000086 12B0          CALL      #__mspabi_divul       ; [] |106| 
         000088 0000!
    1291                                                      ; [] |106| 
    1292 00008a 4C82          MOV.W     r12,&uM+0             ; [] |106| 
         00008c 0000!
    1293 00008e 4D82          MOV.W     r13,&uM+2             ; [] |106| 
         000090 0002!
    1294                    .dwpsn  file "..\CDC.h",line 107,column 2,is_stmt,isa 0
    1295 000092 421C          MOV.W     &cM+0,r12             ; [] |107| 
         000094 0000!
    1296 000096 421D          MOV.W     &cM+2,r13             ; [] |107| 
         000098 0002!
    1297 00009a 403E          MOV.W     #10,r14               ; [] |107| 
         00009c 000A 
    1298 00009e 430F          MOV.W     #0,r15                ; [] |107| 
    1299            $C$DW$112       .dwtag  DW_TAG_TI_branch
    1300                    .dwattr $C$DW$112, DW_AT_low_pc(0x00)
    1301                    .dwattr $C$DW$112, DW_AT_name("__mspabi_mpyl")
    1302                    .dwattr $C$DW$112, DW_AT_TI_call
    1303 0000a0 12B0          CALL      #__mspabi_mpyl        ; [] |107| 
         0000a2 0000!
    1304                                                      ; [] |107| 
    1305 0000a4 521C          ADD.W     &dM+0,r12             ; [] |107| 
         0000a6 0000!
    1306 0000a8 621D          ADDC.W    &dM+2,r13             ; [] |107| 
         0000aa 0002!
    1307 0000ac 403E          MOV.W     #10,r14               ; [] |107| 
MSP430 Assembler PC v4.2.1 Sat Jan 28 11:33:17 2017

Tools Copyright (c) 2003-2013 Texas Instruments Incorporated
C:\Users\mauricio\AppData\Local\Temp\0876010                         PAGE   26

         0000ae 000A 
    1308 0000b0 430F          MOV.W     #0,r15                ; [] |107| 
    1309            $C$DW$113       .dwtag  DW_TAG_TI_branch
    1310                    .dwattr $C$DW$113, DW_AT_low_pc(0x00)
    1311                    .dwattr $C$DW$113, DW_AT_name("__mspabi_mpyl")
    1312                    .dwattr $C$DW$113, DW_AT_TI_call
    1313 0000b2 12B0          CALL      #__mspabi_mpyl        ; [] |107| 
         0000b4 0000!
    1314                                                      ; [] |107| 
    1315 0000b6 521C          ADD.W     &uM+0,r12             ; [] |107| 
         0000b8 0000!
    1316 0000ba 621D          ADDC.W    &uM+2,r13             ; [] |107| 
         0000bc 0002!
    1317 0000be 403E          MOV.W     #16960,r14            ; [] |107| 
         0000c0 4240 
    1318 0000c2 403F          MOV.W     #15,r15               ; [] |107| 
         0000c4 000F 
    1319            $C$DW$114       .dwtag  DW_TAG_TI_branch
    1320                    .dwattr $C$DW$114, DW_AT_low_pc(0x00)
    1321                    .dwattr $C$DW$114, DW_AT_name("__mspabi_mpyl")
    1322                    .dwattr $C$DW$114, DW_AT_TI_call
    1323 0000c6 12B0          CALL      #__mspabi_mpyl        ; [] |107| 
         0000c8 0000!
    1324                                                      ; [] |107| 
    1325 0000ca 490E          MOV.W     r9,r14                ; [] |107| 
    1326 0000cc 4A0F          MOV.W     r10,r15               ; [] |107| 
    1327 0000ce 8C0E          SUB.W     r12,r14               ; [] |107| 
    1328 0000d0 7D0F          SUBC.W    r13,r15               ; [] |107| 
    1329 0000d2 4E0C          MOV.W     r14,r12               ; [] |107| 
    1330 0000d4 4F0D          MOV.W     r15,r13               ; [] |107| 
    1331 0000d6 403E          MOV.W     #34464,r14            ; [] |107| 
         0000d8 86A0 
    1332 0000da 431F          MOV.W     #1,r15                ; [] |107| 
    1333            $C$DW$115       .dwtag  DW_TAG_TI_branch
    1334                    .dwattr $C$DW$115, DW_AT_low_pc(0x00)
    1335                    .dwattr $C$DW$115, DW_AT_name("__mspabi_divul")
    1336                    .dwattr $C$DW$115, DW_AT_TI_call
    1337 0000dc 12B0          CALL      #__mspabi_divul       ; [] |107| 
         0000de 0000!
    1338                                                      ; [] |107| 
    1339 0000e0 4C82          MOV.W     r12,&cm+0             ; [] |107| 
         0000e2 0000!
    1340 0000e4 4D82          MOV.W     r13,&cm+2             ; [] |107| 
         0000e6 0002!
    1341                    .dwpsn  file "..\CDC.h",line 108,column 2,is_stmt,isa 0
    1342 0000e8 421C          MOV.W     &cM+0,r12             ; [] |108| 
         0000ea 0000!
    1343 0000ec 421D          MOV.W     &cM+2,r13             ; [] |108| 
         0000ee 0002!
    1344 0000f0 403E          MOV.W     #10,r14               ; [] |108| 
         0000f2 000A 
    1345 0000f4 430F          MOV.W     #0,r15                ; [] |108| 
    1346            $C$DW$116       .dwtag  DW_TAG_TI_branch
    1347                    .dwattr $C$DW$116, DW_AT_low_pc(0x00)
    1348                    .dwattr $C$DW$116, DW_AT_name("__mspabi_mpyl")
MSP430 Assembler PC v4.2.1 Sat Jan 28 11:33:17 2017

Tools Copyright (c) 2003-2013 Texas Instruments Incorporated
C:\Users\mauricio\AppData\Local\Temp\0876010                         PAGE   27

    1349                    .dwattr $C$DW$116, DW_AT_TI_call
    1350 0000f6 12B0          CALL      #__mspabi_mpyl        ; [] |108| 
         0000f8 0000!
    1351                                                      ; [] |108| 
    1352            ;* --------------------------------------------------------------------------*
    1353 0000fa 521C          ADD.W     &dM+0,r12             ; [] |108| 
         0000fc 0000!
    1354 0000fe 621D          ADDC.W    &dM+2,r13             ; [] |108| 
         000100 0002!
    1355 000102 403E          MOV.W     #10,r14               ; [] |108| 
         000104 000A 
    1356 000106 430F          MOV.W     #0,r15                ; [] |108| 
    1357            $C$DW$117       .dwtag  DW_TAG_TI_branch
    1358                    .dwattr $C$DW$117, DW_AT_low_pc(0x00)
    1359                    .dwattr $C$DW$117, DW_AT_name("__mspabi_mpyl")
    1360                    .dwattr $C$DW$117, DW_AT_TI_call
    1361 000108 12B0          CALL      #__mspabi_mpyl        ; [] |108| 
         00010a 0000!
    1362                                                      ; [] |108| 
    1363 00010c 521C          ADD.W     &uM+0,r12             ; [] |108| 
         00010e 0000!
    1364 000110 621D          ADDC.W    &uM+2,r13             ; [] |108| 
         000112 0002!
    1365 000114 403E          MOV.W     #10,r14               ; [] |108| 
         000116 000A 
    1366 000118 430F          MOV.W     #0,r15                ; [] |108| 
    1367            $C$DW$118       .dwtag  DW_TAG_TI_branch
    1368                    .dwattr $C$DW$118, DW_AT_low_pc(0x00)
    1369                    .dwattr $C$DW$118, DW_AT_name("__mspabi_mpyl")
    1370                    .dwattr $C$DW$118, DW_AT_TI_call
    1371 00011a 12B0          CALL      #__mspabi_mpyl        ; [] |108| 
         00011c 0000!
    1372                                                      ; [] |108| 
    1373 00011e 521C          ADD.W     &cm+0,r12             ; [] |108| 
         000120 0000!
    1374 000122 621D          ADDC.W    &cm+2,r13             ; [] |108| 
         000124 0002!
    1375 000126 403E          MOV.W     #34464,r14            ; [] |108| 
         000128 86A0 
    1376 00012a 431F          MOV.W     #1,r15                ; [] |108| 
    1377            $C$DW$119       .dwtag  DW_TAG_TI_branch
    1378                    .dwattr $C$DW$119, DW_AT_low_pc(0x00)
    1379                    .dwattr $C$DW$119, DW_AT_name("__mspabi_mpyl")
    1380                    .dwattr $C$DW$119, DW_AT_TI_call
    1381 00012c 12B0          CALL      #__mspabi_mpyl        ; [] |108| 
         00012e 0000!
    1382                                                      ; [] |108| 
    1383 000130 490E          MOV.W     r9,r14                ; [] |108| 
    1384 000132 4A0F          MOV.W     r10,r15               ; [] |108| 
    1385 000134 8C0E          SUB.W     r12,r14               ; [] |108| 
    1386 000136 7D0F          SUBC.W    r13,r15               ; [] |108| 
    1387 000138 4E0C          MOV.W     r14,r12               ; [] |108| 
    1388 00013a 4F0D          MOV.W     r15,r13               ; [] |108| 
    1389 00013c 403E          MOV.W     #10000,r14            ; [] |108| 
         00013e 2710 
MSP430 Assembler PC v4.2.1 Sat Jan 28 11:33:17 2017

Tools Copyright (c) 2003-2013 Texas Instruments Incorporated
C:\Users\mauricio\AppData\Local\Temp\0876010                         PAGE   28

    1390 000140 430F          MOV.W     #0,r15                ; [] |108| 
    1391            $C$DW$120       .dwtag  DW_TAG_TI_branch
    1392                    .dwattr $C$DW$120, DW_AT_low_pc(0x00)
    1393                    .dwattr $C$DW$120, DW_AT_name("__mspabi_divul")
    1394                    .dwattr $C$DW$120, DW_AT_TI_call
    1395 000142 12B0          CALL      #__mspabi_divul       ; [] |108| 
         000144 0000!
    1396                                                      ; [] |108| 
    1397 000146 4C82          MOV.W     r12,&dm+0             ; [] |108| 
         000148 0000!
    1398 00014a 4D82          MOV.W     r13,&dm+2             ; [] |108| 
         00014c 0002!
    1399                    .dwpsn  file "..\CDC.h",line 109,column 2,is_stmt,isa 0
    1400 00014e 421C          MOV.W     &cM+0,r12             ; [] |109| 
         000150 0000!
    1401 000152 421D          MOV.W     &cM+2,r13             ; [] |109| 
         000154 0002!
    1402 000156 403E          MOV.W     #10,r14               ; [] |109| 
         000158 000A 
    1403 00015a 430F          MOV.W     #0,r15                ; [] |109| 
    1404            $C$DW$121       .dwtag  DW_TAG_TI_branch
    1405                    .dwattr $C$DW$121, DW_AT_low_pc(0x00)
    1406                    .dwattr $C$DW$121, DW_AT_name("__mspabi_mpyl")
    1407                    .dwattr $C$DW$121, DW_AT_TI_call
    1408 00015c 12B0          CALL      #__mspabi_mpyl        ; [] |109| 
         00015e 0000!
    1409                                                      ; [] |109| 
    1410 000160 521C          ADD.W     &dM+0,r12             ; [] |109| 
         000162 0000!
    1411 000164 621D          ADDC.W    &dM+2,r13             ; [] |109| 
         000166 0002!
    1412 000168 403E          MOV.W     #10,r14               ; [] |109| 
         00016a 000A 
    1413 00016c 430F          MOV.W     #0,r15                ; [] |109| 
    1414            $C$DW$122       .dwtag  DW_TAG_TI_branch
    1415                    .dwattr $C$DW$122, DW_AT_low_pc(0x00)
    1416                    .dwattr $C$DW$122, DW_AT_name("__mspabi_mpyl")
    1417                    .dwattr $C$DW$122, DW_AT_TI_call
    1418 00016e 12B0          CALL      #__mspabi_mpyl        ; [] |109| 
         000170 0000!
    1419                                                      ; [] |109| 
    1420 000172 521C          ADD.W     &uM+0,r12             ; [] |109| 
         000174 0000!
    1421 000176 621D          ADDC.W    &uM+2,r13             ; [] |109| 
         000178 0002!
    1422 00017a 403E          MOV.W     #10,r14               ; [] |109| 
         00017c 000A 
    1423 00017e 430F          MOV.W     #0,r15                ; [] |109| 
    1424            $C$DW$123       .dwtag  DW_TAG_TI_branch
    1425                    .dwattr $C$DW$123, DW_AT_low_pc(0x00)
    1426                    .dwattr $C$DW$123, DW_AT_name("__mspabi_mpyl")
    1427                    .dwattr $C$DW$123, DW_AT_TI_call
    1428 000180 12B0          CALL      #__mspabi_mpyl        ; [] |109| 
         000182 0000!
    1429                                                      ; [] |109| 
MSP430 Assembler PC v4.2.1 Sat Jan 28 11:33:17 2017

Tools Copyright (c) 2003-2013 Texas Instruments Incorporated
C:\Users\mauricio\AppData\Local\Temp\0876010                         PAGE   29

    1430 000184 521C          ADD.W     &cm+0,r12             ; [] |109| 
         000186 0000!
    1431 000188 621D          ADDC.W    &cm+2,r13             ; [] |109| 
         00018a 0002!
    1432 00018c 403E          MOV.W     #10,r14               ; [] |109| 
         00018e 000A 
    1433 000190 430F          MOV.W     #0,r15                ; [] |109| 
    1434            $C$DW$124       .dwtag  DW_TAG_TI_branch
    1435                    .dwattr $C$DW$124, DW_AT_low_pc(0x00)
    1436                    .dwattr $C$DW$124, DW_AT_name("__mspabi_mpyl")
    1437                    .dwattr $C$DW$124, DW_AT_TI_call
    1438 000192 12B0          CALL      #__mspabi_mpyl        ; [] |109| 
         000194 0000!
    1439                                                      ; [] |109| 
    1440 000196 521C          ADD.W     &dm+0,r12             ; [] |109| 
         000198 0000!
    1441 00019a 621D          ADDC.W    &dm+2,r13             ; [] |109| 
         00019c 0002!
    1442 00019e 403E          MOV.W     #10000,r14            ; [] |109| 
         0001a0 2710 
    1443 0001a2 430F          MOV.W     #0,r15                ; [] |109| 
    1444            $C$DW$125       .dwtag  DW_TAG_TI_branch
    1445                    .dwattr $C$DW$125, DW_AT_low_pc(0x00)
    1446                    .dwattr $C$DW$125, DW_AT_name("__mspabi_mpyl")
    1447                    .dwattr $C$DW$125, DW_AT_TI_call
    1448 0001a4 12B0          CALL      #__mspabi_mpyl        ; [] |109| 
         0001a6 0000!
    1449                                                      ; [] |109| 
    1450 0001a8 490E          MOV.W     r9,r14                ; [] |109| 
    1451 0001aa 4A0F          MOV.W     r10,r15               ; [] |109| 
    1452 0001ac 8C0E          SUB.W     r12,r14               ; [] |109| 
    1453 0001ae 7D0F          SUBC.W    r13,r15               ; [] |109| 
    1454 0001b0 4E0C          MOV.W     r14,r12               ; [] |109| 
    1455 0001b2 4F0D          MOV.W     r15,r13               ; [] |109| 
    1456 0001b4 403E          MOV.W     #1000,r14             ; [] |109| 
         0001b6 03E8 
    1457 0001b8 430F          MOV.W     #0,r15                ; [] |109| 
    1458            $C$DW$126       .dwtag  DW_TAG_TI_branch
    1459                    .dwattr $C$DW$126, DW_AT_low_pc(0x00)
    1460                    .dwattr $C$DW$126, DW_AT_name("__mspabi_divul")
    1461                    .dwattr $C$DW$126, DW_AT_TI_call
    1462 0001ba 12B0          CALL      #__mspabi_divul       ; [] |109| 
         0001bc 0000!
    1463                                                      ; [] |109| 
    1464 0001be 4C82          MOV.W     r12,&um+0             ; [] |109| 
         0001c0 0000!
    1465 0001c2 4D82          MOV.W     r13,&um+2             ; [] |109| 
         0001c4 0002!
    1466                    .dwpsn  file "..\CDC.h",line 110,column 2,is_stmt,isa 0
    1467 0001c6 421C          MOV.W     &cM+0,r12             ; [] |110| 
         0001c8 0000!
    1468 0001ca 421D          MOV.W     &cM+2,r13             ; [] |110| 
         0001cc 0002!
    1469 0001ce 403E          MOV.W     #10,r14               ; [] |110| 
         0001d0 000A 
MSP430 Assembler PC v4.2.1 Sat Jan 28 11:33:17 2017

Tools Copyright (c) 2003-2013 Texas Instruments Incorporated
C:\Users\mauricio\AppData\Local\Temp\0876010                         PAGE   30

    1470 0001d2 430F          MOV.W     #0,r15                ; [] |110| 
    1471            $C$DW$127       .dwtag  DW_TAG_TI_branch
    1472                    .dwattr $C$DW$127, DW_AT_low_pc(0x00)
    1473                    .dwattr $C$DW$127, DW_AT_name("__mspabi_mpyl")
    1474                    .dwattr $C$DW$127, DW_AT_TI_call
    1475 0001d4 12B0          CALL      #__mspabi_mpyl        ; [] |110| 
         0001d6 0000!
    1476                                                      ; [] |110| 
    1477            ;* --------------------------------------------------------------------------*
    1478 0001d8 521C          ADD.W     &dM+0,r12             ; [] |110| 
         0001da 0000!
    1479 0001dc 621D          ADDC.W    &dM+2,r13             ; [] |110| 
         0001de 0002!
    1480 0001e0 403E          MOV.W     #10,r14               ; [] |110| 
         0001e2 000A 
    1481 0001e4 430F          MOV.W     #0,r15                ; [] |110| 
    1482            $C$DW$128       .dwtag  DW_TAG_TI_branch
    1483                    .dwattr $C$DW$128, DW_AT_low_pc(0x00)
    1484                    .dwattr $C$DW$128, DW_AT_name("__mspabi_mpyl")
    1485                    .dwattr $C$DW$128, DW_AT_TI_call
    1486 0001e6 12B0          CALL      #__mspabi_mpyl        ; [] |110| 
         0001e8 0000!
    1487                                                      ; [] |110| 
    1488 0001ea 521C          ADD.W     &uM+0,r12             ; [] |110| 
         0001ec 0000!
    1489 0001ee 621D          ADDC.W    &uM+2,r13             ; [] |110| 
         0001f0 0002!
    1490 0001f2 403E          MOV.W     #10,r14               ; [] |110| 
         0001f4 000A 
    1491 0001f6 430F          MOV.W     #0,r15                ; [] |110| 
    1492            $C$DW$129       .dwtag  DW_TAG_TI_branch
    1493                    .dwattr $C$DW$129, DW_AT_low_pc(0x00)
    1494                    .dwattr $C$DW$129, DW_AT_name("__mspabi_mpyl")
    1495                    .dwattr $C$DW$129, DW_AT_TI_call
    1496 0001f8 12B0          CALL      #__mspabi_mpyl        ; [] |110| 
         0001fa 0000!
    1497                                                      ; [] |110| 
    1498 0001fc 521C          ADD.W     &cm+0,r12             ; [] |110| 
         0001fe 0000!
    1499 000200 621D          ADDC.W    &cm+2,r13             ; [] |110| 
         000202 0002!
    1500 000204 403E          MOV.W     #10,r14               ; [] |110| 
         000206 000A 
    1501 000208 430F          MOV.W     #0,r15                ; [] |110| 
    1502            $C$DW$130       .dwtag  DW_TAG_TI_branch
    1503                    .dwattr $C$DW$130, DW_AT_low_pc(0x00)
    1504                    .dwattr $C$DW$130, DW_AT_name("__mspabi_mpyl")
    1505                    .dwattr $C$DW$130, DW_AT_TI_call
    1506 00020a 12B0          CALL      #__mspabi_mpyl        ; [] |110| 
         00020c 0000!
    1507                                                      ; [] |110| 
    1508 00020e 521C          ADD.W     &dm+0,r12             ; [] |110| 
         000210 0000!
    1509 000212 621D          ADDC.W    &dm+2,r13             ; [] |110| 
         000214 0002!
MSP430 Assembler PC v4.2.1 Sat Jan 28 11:33:17 2017

Tools Copyright (c) 2003-2013 Texas Instruments Incorporated
C:\Users\mauricio\AppData\Local\Temp\0876010                         PAGE   31

    1510 000216 403E          MOV.W     #10,r14               ; [] |110| 
         000218 000A 
    1511 00021a 430F          MOV.W     #0,r15                ; [] |110| 
    1512            $C$DW$131       .dwtag  DW_TAG_TI_branch
    1513                    .dwattr $C$DW$131, DW_AT_low_pc(0x00)
    1514                    .dwattr $C$DW$131, DW_AT_name("__mspabi_mpyl")
    1515                    .dwattr $C$DW$131, DW_AT_TI_call
    1516 00021c 12B0          CALL      #__mspabi_mpyl        ; [] |110| 
         00021e 0000!
    1517                                                      ; [] |110| 
    1518 000220 521C          ADD.W     &um+0,r12             ; [] |110| 
         000222 0000!
    1519 000224 621D          ADDC.W    &um+2,r13             ; [] |110| 
         000226 0002!
    1520 000228 403E          MOV.W     #1000,r14             ; [] |110| 
         00022a 03E8 
    1521 00022c 430F          MOV.W     #0,r15                ; [] |110| 
    1522            $C$DW$132       .dwtag  DW_TAG_TI_branch
    1523                    .dwattr $C$DW$132, DW_AT_low_pc(0x00)
    1524                    .dwattr $C$DW$132, DW_AT_name("__mspabi_mpyl")
    1525                    .dwattr $C$DW$132, DW_AT_TI_call
    1526 00022e 12B0          CALL      #__mspabi_mpyl        ; [] |110| 
         000230 0000!
    1527                                                      ; [] |110| 
    1528 000232 490E          MOV.W     r9,r14                ; [] |110| 
    1529 000234 4A0F          MOV.W     r10,r15               ; [] |110| 
    1530 000236 8C0E          SUB.W     r12,r14               ; [] |110| 
    1531 000238 7D0F          SUBC.W    r13,r15               ; [] |110| 
    1532 00023a 4E0C          MOV.W     r14,r12               ; [] |110| 
    1533 00023c 4F0D          MOV.W     r15,r13               ; [] |110| 
    1534 00023e 403E          MOV.W     #100,r14              ; [] |110| 
         000240 0064 
    1535 000242 430F          MOV.W     #0,r15                ; [] |110| 
    1536            $C$DW$133       .dwtag  DW_TAG_TI_branch
    1537                    .dwattr $C$DW$133, DW_AT_low_pc(0x00)
    1538                    .dwattr $C$DW$133, DW_AT_name("__mspabi_divul")
    1539                    .dwattr $C$DW$133, DW_AT_TI_call
    1540 000244 12B0          CALL      #__mspabi_divul       ; [] |110| 
         000246 0000!
    1541                                                      ; [] |110| 
    1542 000248 4C82          MOV.W     r12,&c+0              ; [] |110| 
         00024a 0000!
    1543 00024c 4D82          MOV.W     r13,&c+2              ; [] |110| 
         00024e 0002!
    1544                    .dwpsn  file "..\CDC.h",line 111,column 2,is_stmt,isa 0
    1545 000250 421C          MOV.W     &cM+0,r12             ; [] |111| 
         000252 0000!
    1546 000254 421D          MOV.W     &cM+2,r13             ; [] |111| 
         000256 0002!
    1547 000258 403E          MOV.W     #10,r14               ; [] |111| 
         00025a 000A 
    1548 00025c 430F          MOV.W     #0,r15                ; [] |111| 
    1549            $C$DW$134       .dwtag  DW_TAG_TI_branch
    1550                    .dwattr $C$DW$134, DW_AT_low_pc(0x00)
    1551                    .dwattr $C$DW$134, DW_AT_name("__mspabi_mpyl")
MSP430 Assembler PC v4.2.1 Sat Jan 28 11:33:17 2017

Tools Copyright (c) 2003-2013 Texas Instruments Incorporated
C:\Users\mauricio\AppData\Local\Temp\0876010                         PAGE   32

    1552                    .dwattr $C$DW$134, DW_AT_TI_call
    1553 00025e 12B0          CALL      #__mspabi_mpyl        ; [] |111| 
         000260 0000!
    1554                                                      ; [] |111| 
    1555 000262 521C          ADD.W     &dM+0,r12             ; [] |111| 
         000264 0000!
    1556 000266 621D          ADDC.W    &dM+2,r13             ; [] |111| 
         000268 0002!
    1557 00026a 403E          MOV.W     #10,r14               ; [] |111| 
         00026c 000A 
    1558 00026e 430F          MOV.W     #0,r15                ; [] |111| 
    1559            $C$DW$135       .dwtag  DW_TAG_TI_branch
    1560                    .dwattr $C$DW$135, DW_AT_low_pc(0x00)
    1561                    .dwattr $C$DW$135, DW_AT_name("__mspabi_mpyl")
    1562                    .dwattr $C$DW$135, DW_AT_TI_call
    1563 000270 12B0          CALL      #__mspabi_mpyl        ; [] |111| 
         000272 0000!
    1564                                                      ; [] |111| 
    1565 000274 521C          ADD.W     &uM+0,r12             ; [] |111| 
         000276 0000!
    1566 000278 621D          ADDC.W    &uM+2,r13             ; [] |111| 
         00027a 0002!
    1567 00027c 403E          MOV.W     #10,r14               ; [] |111| 
         00027e 000A 
    1568 000280 430F          MOV.W     #0,r15                ; [] |111| 
    1569            $C$DW$136       .dwtag  DW_TAG_TI_branch
    1570                    .dwattr $C$DW$136, DW_AT_low_pc(0x00)
    1571                    .dwattr $C$DW$136, DW_AT_name("__mspabi_mpyl")
    1572                    .dwattr $C$DW$136, DW_AT_TI_call
    1573 000282 12B0          CALL      #__mspabi_mpyl        ; [] |111| 
         000284 0000!
    1574                                                      ; [] |111| 
    1575 000286 521C          ADD.W     &cm+0,r12             ; [] |111| 
         000288 0000!
    1576 00028a 621D          ADDC.W    &cm+2,r13             ; [] |111| 
         00028c 0002!
    1577 00028e 403E          MOV.W     #10,r14               ; [] |111| 
         000290 000A 
    1578 000292 430F          MOV.W     #0,r15                ; [] |111| 
    1579            $C$DW$137       .dwtag  DW_TAG_TI_branch
    1580                    .dwattr $C$DW$137, DW_AT_low_pc(0x00)
    1581                    .dwattr $C$DW$137, DW_AT_name("__mspabi_mpyl")
    1582                    .dwattr $C$DW$137, DW_AT_TI_call
    1583 000294 12B0          CALL      #__mspabi_mpyl        ; [] |111| 
         000296 0000!
    1584                                                      ; [] |111| 
    1585 000298 521C          ADD.W     &dm+0,r12             ; [] |111| 
         00029a 0000!
    1586 00029c 621D          ADDC.W    &dm+2,r13             ; [] |111| 
         00029e 0002!
    1587 0002a0 403E          MOV.W     #10,r14               ; [] |111| 
         0002a2 000A 
    1588 0002a4 430F          MOV.W     #0,r15                ; [] |111| 
    1589            $C$DW$138       .dwtag  DW_TAG_TI_branch
    1590                    .dwattr $C$DW$138, DW_AT_low_pc(0x00)
MSP430 Assembler PC v4.2.1 Sat Jan 28 11:33:17 2017

Tools Copyright (c) 2003-2013 Texas Instruments Incorporated
C:\Users\mauricio\AppData\Local\Temp\0876010                         PAGE   33

    1591                    .dwattr $C$DW$138, DW_AT_name("__mspabi_mpyl")
    1592                    .dwattr $C$DW$138, DW_AT_TI_call
    1593 0002a6 12B0          CALL      #__mspabi_mpyl        ; [] |111| 
         0002a8 0000!
    1594                                                      ; [] |111| 
    1595            ;* --------------------------------------------------------------------------*
    1596 0002aa 521C          ADD.W     &um+0,r12             ; [] |111| 
         0002ac 0000!
    1597 0002ae 621D          ADDC.W    &um+2,r13             ; [] |111| 
         0002b0 0002!
    1598 0002b2 403E          MOV.W     #10,r14               ; [] |111| 
         0002b4 000A 
    1599 0002b6 430F          MOV.W     #0,r15                ; [] |111| 
    1600            $C$DW$139       .dwtag  DW_TAG_TI_branch
    1601                    .dwattr $C$DW$139, DW_AT_low_pc(0x00)
    1602                    .dwattr $C$DW$139, DW_AT_name("__mspabi_mpyl")
    1603                    .dwattr $C$DW$139, DW_AT_TI_call
    1604 0002b8 12B0          CALL      #__mspabi_mpyl        ; [] |111| 
         0002ba 0000!
    1605                                                      ; [] |111| 
    1606 0002bc 521C          ADD.W     &c+0,r12              ; [] |111| 
         0002be 0000!
    1607 0002c0 621D          ADDC.W    &c+2,r13              ; [] |111| 
         0002c2 0002!
    1608 0002c4 403E          MOV.W     #100,r14              ; [] |111| 
         0002c6 0064 
    1609 0002c8 430F          MOV.W     #0,r15                ; [] |111| 
    1610            $C$DW$140       .dwtag  DW_TAG_TI_branch
    1611                    .dwattr $C$DW$140, DW_AT_low_pc(0x00)
    1612                    .dwattr $C$DW$140, DW_AT_name("__mspabi_mpyl")
    1613                    .dwattr $C$DW$140, DW_AT_TI_call
    1614 0002ca 12B0          CALL      #__mspabi_mpyl        ; [] |111| 
         0002cc 0000!
    1615                                                      ; [] |111| 
    1616 0002ce 490E          MOV.W     r9,r14                ; [] |111| 
    1617 0002d0 4A0F          MOV.W     r10,r15               ; [] |111| 
    1618 0002d2 8C0E          SUB.W     r12,r14               ; [] |111| 
    1619 0002d4 7D0F          SUBC.W    r13,r15               ; [] |111| 
    1620 0002d6 4E0C          MOV.W     r14,r12               ; [] |111| 
    1621 0002d8 4F0D          MOV.W     r15,r13               ; [] |111| 
    1622 0002da 403E          MOV.W     #10,r14               ; [] |111| 
         0002dc 000A 
    1623 0002de 430F          MOV.W     #0,r15                ; [] |111| 
    1624            $C$DW$141       .dwtag  DW_TAG_TI_branch
    1625                    .dwattr $C$DW$141, DW_AT_low_pc(0x00)
    1626                    .dwattr $C$DW$141, DW_AT_name("__mspabi_divul")
    1627                    .dwattr $C$DW$141, DW_AT_TI_call
    1628 0002e0 12B0          CALL      #__mspabi_divul       ; [] |111| 
         0002e2 0000!
    1629                                                      ; [] |111| 
    1630 0002e4 4C82          MOV.W     r12,&d+0              ; [] |111| 
         0002e6 0000!
    1631 0002e8 4D82          MOV.W     r13,&d+2              ; [] |111| 
         0002ea 0002!
    1632                    .dwpsn  file "..\CDC.h",line 112,column 2,is_stmt,isa 0
MSP430 Assembler PC v4.2.1 Sat Jan 28 11:33:17 2017

Tools Copyright (c) 2003-2013 Texas Instruments Incorporated
C:\Users\mauricio\AppData\Local\Temp\0876010                         PAGE   34

    1633 0002ec 421C          MOV.W     &cM+0,r12             ; [] |112| 
         0002ee 0000!
    1634 0002f0 421D          MOV.W     &cM+2,r13             ; [] |112| 
         0002f2 0002!
    1635 0002f4 403E          MOV.W     #10,r14               ; [] |112| 
         0002f6 000A 
    1636 0002f8 430F          MOV.W     #0,r15                ; [] |112| 
    1637            $C$DW$142       .dwtag  DW_TAG_TI_branch
    1638                    .dwattr $C$DW$142, DW_AT_low_pc(0x00)
    1639                    .dwattr $C$DW$142, DW_AT_name("__mspabi_mpyl")
    1640                    .dwattr $C$DW$142, DW_AT_TI_call
    1641 0002fa 12B0          CALL      #__mspabi_mpyl        ; [] |112| 
         0002fc 0000!
    1642                                                      ; [] |112| 
    1643 0002fe 521C          ADD.W     &dM+0,r12             ; [] |112| 
         000300 0000!
    1644 000302 621D          ADDC.W    &dM+2,r13             ; [] |112| 
         000304 0002!
    1645 000306 403E          MOV.W     #10,r14               ; [] |112| 
         000308 000A 
    1646 00030a 430F          MOV.W     #0,r15                ; [] |112| 
    1647            $C$DW$143       .dwtag  DW_TAG_TI_branch
    1648                    .dwattr $C$DW$143, DW_AT_low_pc(0x00)
    1649                    .dwattr $C$DW$143, DW_AT_name("__mspabi_mpyl")
    1650                    .dwattr $C$DW$143, DW_AT_TI_call
    1651 00030c 12B0          CALL      #__mspabi_mpyl        ; [] |112| 
         00030e 0000!
    1652                                                      ; [] |112| 
    1653 000310 521C          ADD.W     &uM+0,r12             ; [] |112| 
         000312 0000!
    1654 000314 621D          ADDC.W    &uM+2,r13             ; [] |112| 
         000316 0002!
    1655 000318 403E          MOV.W     #10,r14               ; [] |112| 
         00031a 000A 
    1656 00031c 430F          MOV.W     #0,r15                ; [] |112| 
    1657            $C$DW$144       .dwtag  DW_TAG_TI_branch
    1658                    .dwattr $C$DW$144, DW_AT_low_pc(0x00)
    1659                    .dwattr $C$DW$144, DW_AT_name("__mspabi_mpyl")
    1660                    .dwattr $C$DW$144, DW_AT_TI_call
    1661 00031e 12B0          CALL      #__mspabi_mpyl        ; [] |112| 
         000320 0000!
    1662                                                      ; [] |112| 
    1663 000322 521C          ADD.W     &cm+0,r12             ; [] |112| 
         000324 0000!
    1664 000326 621D          ADDC.W    &cm+2,r13             ; [] |112| 
         000328 0002!
    1665 00032a 403E          MOV.W     #10,r14               ; [] |112| 
         00032c 000A 
    1666 00032e 430F          MOV.W     #0,r15                ; [] |112| 
    1667            $C$DW$145       .dwtag  DW_TAG_TI_branch
    1668                    .dwattr $C$DW$145, DW_AT_low_pc(0x00)
    1669                    .dwattr $C$DW$145, DW_AT_name("__mspabi_mpyl")
    1670                    .dwattr $C$DW$145, DW_AT_TI_call
    1671 000330 12B0          CALL      #__mspabi_mpyl        ; [] |112| 
         000332 0000!
MSP430 Assembler PC v4.2.1 Sat Jan 28 11:33:17 2017

Tools Copyright (c) 2003-2013 Texas Instruments Incorporated
C:\Users\mauricio\AppData\Local\Temp\0876010                         PAGE   35

    1672                                                      ; [] |112| 
    1673 000334 521C          ADD.W     &dm+0,r12             ; [] |112| 
         000336 0000!
    1674 000338 621D          ADDC.W    &dm+2,r13             ; [] |112| 
         00033a 0002!
    1675 00033c 403E          MOV.W     #10,r14               ; [] |112| 
         00033e 000A 
    1676 000340 430F          MOV.W     #0,r15                ; [] |112| 
    1677            $C$DW$146       .dwtag  DW_TAG_TI_branch
    1678                    .dwattr $C$DW$146, DW_AT_low_pc(0x00)
    1679                    .dwattr $C$DW$146, DW_AT_name("__mspabi_mpyl")
    1680                    .dwattr $C$DW$146, DW_AT_TI_call
    1681 000342 12B0          CALL      #__mspabi_mpyl        ; [] |112| 
         000344 0000!
    1682                                                      ; [] |112| 
    1683 000346 521C          ADD.W     &um+0,r12             ; [] |112| 
         000348 0000!
    1684 00034a 621D          ADDC.W    &um+2,r13             ; [] |112| 
         00034c 0002!
    1685 00034e 403E          MOV.W     #10,r14               ; [] |112| 
         000350 000A 
    1686 000352 430F          MOV.W     #0,r15                ; [] |112| 
    1687            $C$DW$147       .dwtag  DW_TAG_TI_branch
    1688                    .dwattr $C$DW$147, DW_AT_low_pc(0x00)
    1689                    .dwattr $C$DW$147, DW_AT_name("__mspabi_mpyl")
    1690                    .dwattr $C$DW$147, DW_AT_TI_call
    1691 000354 12B0          CALL      #__mspabi_mpyl        ; [] |112| 
         000356 0000!
    1692                                                      ; [] |112| 
    1693 000358 521C          ADD.W     &c+0,r12              ; [] |112| 
         00035a 0000!
    1694 00035c 621D          ADDC.W    &c+2,r13              ; [] |112| 
         00035e 0002!
    1695 000360 403E          MOV.W     #10,r14               ; [] |112| 
         000362 000A 
    1696 000364 430F          MOV.W     #0,r15                ; [] |112| 
    1697            $C$DW$148       .dwtag  DW_TAG_TI_branch
    1698                    .dwattr $C$DW$148, DW_AT_low_pc(0x00)
    1699                    .dwattr $C$DW$148, DW_AT_name("__mspabi_mpyl")
    1700                    .dwattr $C$DW$148, DW_AT_TI_call
    1701 000366 12B0          CALL      #__mspabi_mpyl        ; [] |112| 
         000368 0000!
    1702                                                      ; [] |112| 
    1703 00036a 521C          ADD.W     &d+0,r12              ; [] |112| 
         00036c 0000!
    1704 00036e 621D          ADDC.W    &d+2,r13              ; [] |112| 
         000370 0002!
    1705 000372 403E          MOV.W     #10,r14               ; [] |112| 
         000374 000A 
    1706 000376 430F          MOV.W     #0,r15                ; [] |112| 
    1707            $C$DW$149       .dwtag  DW_TAG_TI_branch
    1708                    .dwattr $C$DW$149, DW_AT_low_pc(0x00)
    1709                    .dwattr $C$DW$149, DW_AT_name("__mspabi_mpyl")
    1710                    .dwattr $C$DW$149, DW_AT_TI_call
    1711 000378 12B0          CALL      #__mspabi_mpyl        ; [] |112| 
MSP430 Assembler PC v4.2.1 Sat Jan 28 11:33:17 2017

Tools Copyright (c) 2003-2013 Texas Instruments Incorporated
C:\Users\mauricio\AppData\Local\Temp\0876010                         PAGE   36

         00037a 0000!
    1712                                                      ; [] |112| 
    1713            ;* --------------------------------------------------------------------------*
    1714 00037c 8C09          SUB.W     r12,r9                ; [] |112| 
    1715 00037e 7D0A          SUBC.W    r13,r10               ; [] |112| 
    1716 000380 4982          MOV.W     r9,&u+0               ; [] |112| 
         000382 0000!
    1717 000384 4A82          MOV.W     r10,&u+2              ; [] |112| 
         000386 0002!
    1718                    .dwpsn  file "..\CDC.h",line 114,column 2,is_stmt,isa 0
    1719 000388 403F          MOV.W     #48,r15               ; [] |114| 
         00038a 0030 
    1720 00038c 525F          ADD.B     &cM+0,r15             ; [] |114| 
         00038e 0000!
    1721 000390 4FC2          MOV.B     r15,&aux_char1+0      ; [] |114| 
         000392 0000!
    1722                    .dwpsn  file "..\CDC.h",line 115,column 2,is_stmt,isa 0
    1723 000394 403F          MOV.W     #48,r15               ; [] |115| 
         000396 0030 
    1724 000398 525F          ADD.B     &dM+0,r15             ; [] |115| 
         00039a 0000!
    1725 00039c 4FC2          MOV.B     r15,&aux_char1+1      ; [] |115| 
         00039e 0001!
    1726                    .dwpsn  file "..\CDC.h",line 116,column 2,is_stmt,isa 0
    1727 0003a0 403F          MOV.W     #48,r15               ; [] |116| 
         0003a2 0030 
    1728 0003a4 525F          ADD.B     &uM+0,r15             ; [] |116| 
         0003a6 0000!
    1729 0003a8 4FC2          MOV.B     r15,&aux_char1+2      ; [] |116| 
         0003aa 0002!
    1730                    .dwpsn  file "..\CDC.h",line 117,column 2,is_stmt,isa 0
    1731 0003ac 403F          MOV.W     #48,r15               ; [] |117| 
         0003ae 0030 
    1732 0003b0 525F          ADD.B     &cm+0,r15             ; [] |117| 
         0003b2 0000!
    1733 0003b4 4FC2          MOV.B     r15,&aux_char1+3      ; [] |117| 
         0003b6 0003!
    1734                    .dwpsn  file "..\CDC.h",line 118,column 2,is_stmt,isa 0
    1735 0003b8 403F          MOV.W     #48,r15               ; [] |118| 
         0003ba 0030 
    1736 0003bc 525F          ADD.B     &dm+0,r15             ; [] |118| 
         0003be 0000!
    1737 0003c0 4FC2          MOV.B     r15,&aux_char1+4      ; [] |118| 
         0003c2 0004!
    1738                    .dwpsn  file "..\CDC.h",line 119,column 2,is_stmt,isa 0
    1739 0003c4 403F          MOV.W     #48,r15               ; [] |119| 
         0003c6 0030 
    1740 0003c8 525F          ADD.B     &um+0,r15             ; [] |119| 
         0003ca 0000!
    1741 0003cc 4FC2          MOV.B     r15,&aux_char1+5      ; [] |119| 
         0003ce 0005!
    1742                    .dwpsn  file "..\CDC.h",line 120,column 2,is_stmt,isa 0
    1743 0003d0 403F          MOV.W     #48,r15               ; [] |120| 
         0003d2 0030 
    1744 0003d4 525F          ADD.B     &c+0,r15              ; [] |120| 
MSP430 Assembler PC v4.2.1 Sat Jan 28 11:33:17 2017

Tools Copyright (c) 2003-2013 Texas Instruments Incorporated
C:\Users\mauricio\AppData\Local\Temp\0876010                         PAGE   37

         0003d6 0000!
    1745 0003d8 4FC2          MOV.B     r15,&aux_char1+6      ; [] |120| 
         0003da 0006!
    1746                    .dwpsn  file "..\CDC.h",line 121,column 2,is_stmt,isa 0
    1747 0003dc 403F          MOV.W     #48,r15               ; [] |121| 
         0003de 0030 
    1748 0003e0 525F          ADD.B     &d+0,r15              ; [] |121| 
         0003e2 0000!
    1749 0003e4 4FC2          MOV.B     r15,&aux_char1+7      ; [] |121| 
         0003e6 0007!
    1750                    .dwpsn  file "..\CDC.h",line 122,column 2,is_stmt,isa 0
    1751 0003e8 403F          MOV.W     #48,r15               ; [] |122| 
         0003ea 0030 
    1752 0003ec 525F          ADD.B     &u+0,r15              ; [] |122| 
         0003ee 0000!
    1753 0003f0 4FC2          MOV.B     r15,&aux_char1+8      ; [] |122| 
         0003f2 0008!
    1754                    .dwpsn  file "..\CDC.h",line 124,column 2,is_stmt,isa 0
    1755 0003f4 403C          MOV.W     #aux_char1+0,r12      ; [] |124| 
         0003f6 0000!
    1756            $C$DW$150       .dwtag  DW_TAG_TI_branch
    1757                    .dwattr $C$DW$150, DW_AT_low_pc(0x00)
    1758                    .dwattr $C$DW$150, DW_AT_name("ec")
    1759                    .dwattr $C$DW$150, DW_AT_TI_call
    1760 0003f8 12B0          CALL      #ec                   ; [] |124| 
         0003fa 0000!
    1761                                                      ; [] |124| 
    1762                    .dwpsn  file "..\CDC.h",line 126,column 2,is_stmt,isa 0
    1763 0003fc 42F2          MOV.B     #8,&aux_char1+0       ; [] |126| 
         0003fe 0000!
    1764                    .dwpsn  file "..\CDC.h",line 127,column 2,is_stmt,isa 0
    1765 000400 40F2          MOV.B     #48,&aux_char1+1      ; [] |127| 
         000402 0030 
         000404 0001!
    1766                    .dwpsn  file "..\CDC.h",line 128,column 2,is_stmt,isa 0
    1767 000406 40F2          MOV.B     #48,&aux_char1+2      ; [] |128| 
         000408 0030 
         00040a 0002!
    1768                    .dwpsn  file "..\CDC.h",line 129,column 2,is_stmt,isa 0
    1769 00040c 40F2          MOV.B     #48,&aux_char1+3      ; [] |129| 
         00040e 0030 
         000410 0003!
    1770                    .dwpsn  file "..\CDC.h",line 130,column 2,is_stmt,isa 0
    1771 000412 40F2          MOV.B     #48,&aux_char1+4      ; [] |130| 
         000414 0030 
         000416 0004!
    1772                    .dwpsn  file "..\CDC.h",line 131,column 2,is_stmt,isa 0
    1773 000418 40F2          MOV.B     #48,&aux_char1+5      ; [] |131| 
         00041a 0030 
         00041c 0005!
    1774                    .dwpsn  file "..\CDC.h",line 132,column 2,is_stmt,isa 0
    1775 00041e 40F2          MOV.B     #48,&aux_char1+6      ; [] |132| 
         000420 0030 
         000422 0006!
    1776                    .dwpsn  file "..\CDC.h",line 133,column 2,is_stmt,isa 0
MSP430 Assembler PC v4.2.1 Sat Jan 28 11:33:17 2017

Tools Copyright (c) 2003-2013 Texas Instruments Incorporated
C:\Users\mauricio\AppData\Local\Temp\0876010                         PAGE   38

    1777 000424 40F2          MOV.B     #48,&aux_char1+7      ; [] |133| 
         000426 0030 
         000428 0007!
    1778                    .dwpsn  file "..\CDC.h",line 134,column 2,is_stmt,isa 0
    1779 00042a 40F2          MOV.B     #48,&aux_char1+8      ; [] |134| 
         00042c 0030 
         00042e 0008!
    1780                    .dwpsn  file "..\CDC.h",line 135,column 1,is_stmt,isa 0
    1781 000430 4030          BR        #__mspabi_func_epilog_2+0 ; [] 
         000432 0000!
    1782                                                      ; [] 
    1783                    .dwattr $C$DW$103, DW_AT_TI_end_file("..\CDC.h")
    1784                    .dwattr $C$DW$103, DW_AT_TI_end_line(0x87)
    1785                    .dwattr $C$DW$103, DW_AT_TI_end_column(0x01)
    1786                    .dwendentry
    1787                    .dwendtag $C$DW$103
    1788            
    1789 000000               .sect   ".text:int2hex"
    1790                    .align  2
    1791                    .clink
    1792                    .global int2hex
    1793            
    1794            $C$DW$151       .dwtag  DW_TAG_subprogram, DW_AT_name("int2hex")
    1795                    .dwattr $C$DW$151, DW_AT_low_pc(int2hex)
    1796                    .dwattr $C$DW$151, DW_AT_high_pc(0x00)
    1797                    .dwattr $C$DW$151, DW_AT_TI_symbol_name("int2hex")
    1798                    .dwattr $C$DW$151, DW_AT_external
    1799                    .dwattr $C$DW$151, DW_AT_TI_begin_file("..\CDC.h")
    1800                    .dwattr $C$DW$151, DW_AT_TI_begin_line(0x89)
    1801                    .dwattr $C$DW$151, DW_AT_TI_begin_column(0x06)
    1802                    .dwattr $C$DW$151, DW_AT_decl_file("..\CDC.h")
    1803                    .dwattr $C$DW$151, DW_AT_decl_line(0x89)
    1804                    .dwattr $C$DW$151, DW_AT_decl_column(0x06)
    1805                    .dwattr $C$DW$151, DW_AT_TI_max_frame_size(0x02)
    1806                    .dwpsn  file "..\CDC.h",line 138,column 1,is_stmt,address int2hex,isa 0
    1807            
    1808                    .dwfde $C$DW$CIE, int2hex
    1809            $C$DW$152       .dwtag  DW_TAG_formal_parameter, DW_AT_name("datoint")
    1810                    .dwattr $C$DW$152, DW_AT_TI_symbol_name("datoint")
    1811                    .dwattr $C$DW$152, DW_AT_type(*$C$DW$T$11)
    1812                    .dwattr $C$DW$152, DW_AT_location[DW_OP_reg12]
    1813            
    1814            ;*****************************************************************************
    1815            ;* FUNCTION NAME: int2hex                                                    *
    1816            ;*                                                                           *
    1817            ;*   Regs Modified     : SP,SR,r12,r14,r15                                   *
    1818            ;*   Regs Used         : SP,SR,r12,r14,r15                                   *
    1819            ;*   Local Frame Size  : 0 Args + 0 Auto + 0 Save = 0 byte                   *
    1820            ;*****************************************************************************
    1821 000000       int2hex:
    1822            ;* --------------------------------------------------------------------------*
    1823                    .dwcfi  cfa_offset, 2
    1824                    .dwcfi  save_reg_to_mem, 16, -2
    1825            ;* r15   assigned to datoint
    1826            $C$DW$153       .dwtag  DW_TAG_variable, DW_AT_name("datoint")
MSP430 Assembler PC v4.2.1 Sat Jan 28 11:33:17 2017

Tools Copyright (c) 2003-2013 Texas Instruments Incorporated
C:\Users\mauricio\AppData\Local\Temp\0876010                         PAGE   39

    1827                    .dwattr $C$DW$153, DW_AT_TI_symbol_name("datoint")
    1828                    .dwattr $C$DW$153, DW_AT_type(*$C$DW$T$11)
    1829                    .dwattr $C$DW$153, DW_AT_location[DW_OP_reg15]
    1830 000000 4C0F          MOV.W     r12,r15               ; [] |138| 
    1831                    .dwpsn  file "..\CDC.h",line 139,column 2,is_stmt,isa 0
    1832 000002 4F0E          MOV.W     r15,r14               ; [] |139| 
    1833 000004 F07E          AND.B     #15,r14               ; [] |139| 
         000006 000F 
    1834 000008 4EC2          MOV.B     r14,&_UD+0            ; [] |139| 
         00000a 0000!
    1835                    .dwpsn  file "..\CDC.h",line 140,column 2,is_stmt,isa 0
    1836            $C$DW$154       .dwtag  DW_TAG_TI_branch
    1837                    .dwattr $C$DW$154, DW_AT_low_pc(0x00)
    1838                    .dwattr $C$DW$154, DW_AT_name("__mspabi_srli_4")
    1839                    .dwattr $C$DW$154, DW_AT_TI_call
    1840 00000c 12B0          CALL      #__mspabi_srli_4      ; [] |140| 
         00000e 0000!
    1841                                                      ; [] |140| 
    1842 000010 F07C          AND.B     #15,r12               ; [] |140| 
         000012 000F 
    1843 000014 4CC2          MOV.B     r12,&_UM+0            ; [] |140| 
         000016 0000!
    1844                    .dwpsn  file "..\CDC.h",line 141,column 2,is_stmt,isa 0
    1845 000018 4F0E          MOV.W     r15,r14               ; [] |141| 
    1846 00001a 108E          SWPB      r14                   ; [] |141| 
    1847 00001c F07E          AND.B     #15,r14               ; [] |141| 
         00001e 000F 
    1848 000020 4EC2          MOV.B     r14,&_DM+0            ; [] |141| 
         000022 0000!
    1849                    .dwpsn  file "..\CDC.h",line 142,column 2,is_stmt,isa 0
    1850 000024 4F0C          MOV.W     r15,r12               ; [] |142| 
    1851            $C$DW$155       .dwtag  DW_TAG_TI_branch
    1852                    .dwattr $C$DW$155, DW_AT_low_pc(0x00)
    1853                    .dwattr $C$DW$155, DW_AT_name("__mspabi_srli_12")
    1854                    .dwattr $C$DW$155, DW_AT_TI_call
    1855 000026 12B0          CALL      #__mspabi_srli_12     ; [] |142| 
         000028 0000!
    1856                                                      ; [] |142| 
    1857 00002a 4CC2          MOV.B     r12,&_D+0             ; [] |142| 
         00002c 0000!
    1858                    .dwpsn  file "..\CDC.h",line 144,column 13,is_stmt,isa 0
    1859 00002e 90F2          CMP.B     #10,&_UD+0            ; [] |144| 
         000030 000A 
         000032 0000!
    1860 000034 2C03          JHS       $C$L11                ; [] |144| 
    1861                                                      ; [] |144| 
    1862            ;* --------------------------------------------------------------------------*
    1863 000036 403F          MOV.W     #48,r15               ; [] |144| 
         000038 0030 
    1864 00003a 3C02          JMP       $C$L12                ; [] |144| 
    1865                                                      ; [] |144| 
    1866            ;* --------------------------------------------------------------------------*
    1867 00003c       $C$L11:    
    1868 00003c 403F          MOV.W     #55,r15               ; [] |144| 
         00003e 0037 
MSP430 Assembler PC v4.2.1 Sat Jan 28 11:33:17 2017

Tools Copyright (c) 2003-2013 Texas Instruments Incorporated
C:\Users\mauricio\AppData\Local\Temp\0876010                         PAGE   40

    1869            ;* --------------------------------------------------------------------------*
    1870 000040       $C$L12:    
    1871 000040 5FC2          ADD.B     r15,&_UD+0            ; [] |144| 
         000042 0000!
    1872                    .dwpsn  file "..\CDC.h",line 145,column 13,is_stmt,isa 0
    1873 000044 90F2          CMP.B     #10,&_UM+0            ; [] |145| 
         000046 000A 
         000048 0000!
    1874 00004a 2C03          JHS       $C$L13                ; [] |145| 
    1875                                                      ; [] |145| 
    1876            ;* --------------------------------------------------------------------------*
    1877 00004c 403F          MOV.W     #48,r15               ; [] |145| 
         00004e 0030 
    1878 000050 3C02          JMP       $C$L14                ; [] |145| 
    1879                                                      ; [] |145| 
    1880            ;* --------------------------------------------------------------------------*
    1881 000052       $C$L13:    
    1882 000052 403F          MOV.W     #55,r15               ; [] |145| 
         000054 0037 
    1883            ;* --------------------------------------------------------------------------*
    1884 000056       $C$L14:    
    1885 000056 5FC2          ADD.B     r15,&_UM+0            ; [] |145| 
         000058 0000!
    1886                    .dwpsn  file "..\CDC.h",line 146,column 13,is_stmt,isa 0
    1887 00005a 90F2          CMP.B     #10,&_DM+0            ; [] |146| 
         00005c 000A 
         00005e 0000!
    1888 000060 2C03          JHS       $C$L15                ; [] |146| 
    1889                                                      ; [] |146| 
    1890            ;* --------------------------------------------------------------------------*
    1891 000062 403F          MOV.W     #48,r15               ; [] |146| 
         000064 0030 
    1892 000066 3C02          JMP       $C$L16                ; [] |146| 
    1893                                                      ; [] |146| 
    1894            ;* --------------------------------------------------------------------------*
    1895 000068       $C$L15:    
    1896 000068 403F          MOV.W     #55,r15               ; [] |146| 
         00006a 0037 
    1897            ;* --------------------------------------------------------------------------*
    1898 00006c       $C$L16:    
    1899 00006c 5FC2          ADD.B     r15,&_DM+0            ; [] |146| 
         00006e 0000!
    1900                    .dwpsn  file "..\CDC.h",line 147,column 12,is_stmt,isa 0
    1901 000070 90F2          CMP.B     #10,&_D+0             ; [] |147| 
         000072 000A 
         000074 0000!
    1902 000076 2C03          JHS       $C$L17                ; [] |147| 
    1903                                                      ; [] |147| 
    1904            ;* --------------------------------------------------------------------------*
    1905 000078 403F          MOV.W     #48,r15               ; [] |147| 
         00007a 0030 
    1906 00007c 3C02          JMP       $C$L18                ; [] |147| 
    1907                                                      ; [] |147| 
    1908            ;* --------------------------------------------------------------------------*
    1909 00007e       $C$L17:    
MSP430 Assembler PC v4.2.1 Sat Jan 28 11:33:17 2017

Tools Copyright (c) 2003-2013 Texas Instruments Incorporated
C:\Users\mauricio\AppData\Local\Temp\0876010                         PAGE   41

    1910 00007e 403F          MOV.W     #55,r15               ; [] |147| 
         000080 0037 
    1911            ;* --------------------------------------------------------------------------*
    1912 000082       $C$L18:    
    1913 000082 5FC2          ADD.B     r15,&_D+0             ; [] |147| 
         000084 0000!
    1914                    .dwpsn  file "..\CDC.h",line 148,column 2,is_stmt,isa 0
    1915 000086 42D2          MOV.B     &_UD+0,&aux_char+4    ; [] |148| 
         000088 0000!
         00008a 0004!
    1916                    .dwpsn  file "..\CDC.h",line 149,column 2,is_stmt,isa 0
    1917 00008c 42D2          MOV.B     &_UM+0,&aux_char+3    ; [] |149| 
         00008e 0000!
         000090 0003!
    1918                    .dwpsn  file "..\CDC.h",line 150,column 2,is_stmt,isa 0
    1919 000092 42D2          MOV.B     &_DM+0,&aux_char+2    ; [] |150| 
         000094 0000!
         000096 0002!
    1920                    .dwpsn  file "..\CDC.h",line 151,column 2,is_stmt,isa 0
    1921 000098 42D2          MOV.B     &_D+0,&aux_char+1     ; [] |151| 
         00009a 0000!
         00009c 0001!
    1922                    .dwpsn  file "..\CDC.h",line 152,column 2,is_stmt,isa 0
    1923 00009e 403C          MOV.W     #aux_char+0,r12       ; [] |152| 
         0000a0 0000!
    1924            $C$DW$156       .dwtag  DW_TAG_TI_branch
    1925                    .dwattr $C$DW$156, DW_AT_low_pc(0x00)
    1926                    .dwattr $C$DW$156, DW_AT_name("ec")
    1927                    .dwattr $C$DW$156, DW_AT_TI_call
    1928 0000a2 12B0          CALL      #ec                   ; [] |152| 
         0000a4 0000!
    1929                                                      ; [] |152| 
    1930                    .dwpsn  file "..\CDC.h",line 153,column 1,is_stmt,isa 0
    1931            $C$DW$157       .dwtag  DW_TAG_TI_branch
    1932                    .dwattr $C$DW$157, DW_AT_low_pc(0x00)
    1933                    .dwattr $C$DW$157, DW_AT_TI_return
    1934 0000a6 4130          RET       ; [] 
    1935                    ; [] 
    1936                    .dwattr $C$DW$151, DW_AT_TI_end_file("..\CDC.h")
    1937                    .dwattr $C$DW$151, DW_AT_TI_end_line(0x99)
    1938                    .dwattr $C$DW$151, DW_AT_TI_end_column(0x01)
    1939                    .dwendentry
    1940                    .dwendtag $C$DW$151
    1941            
    1942 000000               .sect   ".text:borrar"
    1943                    .align  2
    1944                    .clink
    1945                    .global borrar
    1946            
    1947            $C$DW$158       .dwtag  DW_TAG_subprogram, DW_AT_name("borrar")
    1948                    .dwattr $C$DW$158, DW_AT_low_pc(borrar)
    1949                    .dwattr $C$DW$158, DW_AT_high_pc(0x00)
    1950                    .dwattr $C$DW$158, DW_AT_TI_symbol_name("borrar")
    1951                    .dwattr $C$DW$158, DW_AT_external
    1952                    .dwattr $C$DW$158, DW_AT_TI_begin_file("..\CDC.h")
MSP430 Assembler PC v4.2.1 Sat Jan 28 11:33:17 2017

Tools Copyright (c) 2003-2013 Texas Instruments Incorporated
C:\Users\mauricio\AppData\Local\Temp\0876010                         PAGE   42

    1953                    .dwattr $C$DW$158, DW_AT_TI_begin_line(0x9b)
    1954                    .dwattr $C$DW$158, DW_AT_TI_begin_column(0x06)
    1955                    .dwattr $C$DW$158, DW_AT_decl_file("..\CDC.h")
    1956                    .dwattr $C$DW$158, DW_AT_decl_line(0x9b)
    1957                    .dwattr $C$DW$158, DW_AT_decl_column(0x06)
    1958                    .dwattr $C$DW$158, DW_AT_TI_max_frame_size(0x02)
    1959                    .dwpsn  file "..\CDC.h",line 155,column 14,is_stmt,address borrar,isa 0
    1960            
    1961                    .dwfde $C$DW$CIE, borrar
    1962            
    1963            ;*****************************************************************************
    1964            ;* FUNCTION NAME: borrar                                                     *
    1965            ;*                                                                           *
    1966            ;*   Regs Modified     : SP,SR,r12                                           *
    1967            ;*   Regs Used         : SP,SR,r12                                           *
    1968            ;*   Local Frame Size  : 0 Args + 0 Auto + 0 Save = 0 byte                   *
    1969            ;*****************************************************************************
    1970 000000       borrar:
    1971            ;* --------------------------------------------------------------------------*
    1972                    .dwcfi  cfa_offset, 2
    1973                    .dwcfi  save_reg_to_mem, 16, -2
    1974                    .dwpsn  file "..\CDC.h",line 155,column 15,is_stmt,isa 0
    1975 000000 407C          MOV.B     #13,r12               ; [] |155| 
         000002 000D 
    1976            $C$DW$159       .dwtag  DW_TAG_TI_branch
    1977                    .dwattr $C$DW$159, DW_AT_low_pc(0x00)
    1978                    .dwattr $C$DW$159, DW_AT_name("sd_")
    1979                    .dwattr $C$DW$159, DW_AT_TI_call
    1980 000004 12B0          CALL      #sd_                  ; [] |155| 
         000006 0000!
    1981                                                      ; [] |155| 
    1982                    .dwpsn  file "..\CDC.h",line 155,column 23,is_stmt,isa 0
    1983            $C$DW$160       .dwtag  DW_TAG_TI_branch
    1984                    .dwattr $C$DW$160, DW_AT_low_pc(0x00)
    1985                    .dwattr $C$DW$160, DW_AT_TI_return
    1986 000008 4130          RET       ; [] 
    1987                    ; [] 
    1988                    .dwattr $C$DW$158, DW_AT_TI_end_file("..\CDC.h")
    1989                    .dwattr $C$DW$158, DW_AT_TI_end_line(0x9b)
    1990                    .dwattr $C$DW$158, DW_AT_TI_end_column(0x17)
    1991                    .dwendentry
    1992                    .dwendtag $C$DW$158
    1993            
    1994 000000               .sect   ".text:printint"
    1995                    .align  2
    1996                    .clink
    1997                    .global printint
    1998            
    1999            $C$DW$161       .dwtag  DW_TAG_subprogram, DW_AT_name("printint")
    2000                    .dwattr $C$DW$161, DW_AT_low_pc(printint)
    2001                    .dwattr $C$DW$161, DW_AT_high_pc(0x00)
    2002                    .dwattr $C$DW$161, DW_AT_TI_symbol_name("printint")
    2003                    .dwattr $C$DW$161, DW_AT_external
    2004                    .dwattr $C$DW$161, DW_AT_TI_begin_file("..\CDC.h")
    2005                    .dwattr $C$DW$161, DW_AT_TI_begin_line(0x9d)
MSP430 Assembler PC v4.2.1 Sat Jan 28 11:33:17 2017

Tools Copyright (c) 2003-2013 Texas Instruments Incorporated
C:\Users\mauricio\AppData\Local\Temp\0876010                         PAGE   43

    2006                    .dwattr $C$DW$161, DW_AT_TI_begin_column(0x06)
    2007                    .dwattr $C$DW$161, DW_AT_decl_file("..\CDC.h")
    2008                    .dwattr $C$DW$161, DW_AT_decl_line(0x9d)
    2009                    .dwattr $C$DW$161, DW_AT_decl_column(0x06)
    2010                    .dwattr $C$DW$161, DW_AT_TI_max_frame_size(0x02)
    2011                    .dwpsn  file "..\CDC.h",line 158,column 1,is_stmt,address printint,isa 0
    2012            
    2013                    .dwfde $C$DW$CIE, printint
    2014            $C$DW$162       .dwtag  DW_TAG_formal_parameter, DW_AT_name("intchar1")
    2015                    .dwattr $C$DW$162, DW_AT_TI_symbol_name("intchar1")
    2016                    .dwattr $C$DW$162, DW_AT_type(*$C$DW$T$10)
    2017                    .dwattr $C$DW$162, DW_AT_location[DW_OP_reg12]
    2018            
    2019            ;*****************************************************************************
    2020            ;* FUNCTION NAME: printint                                                   *
    2021            ;*                                                                           *
    2022            ;*   Regs Modified     : SP,SR,r11,r12,r13,r14,r15                           *
    2023            ;*   Regs Used         : SP,SR,r11,r12,r13,r14,r15                           *
    2024            ;*   Local Frame Size  : 0 Args + 0 Auto + 0 Save = 0 byte                   *
    2025            ;*****************************************************************************
    2026 000000       printint:
    2027            ;* --------------------------------------------------------------------------*
    2028                    .dwcfi  cfa_offset, 2
    2029                    .dwcfi  save_reg_to_mem, 16, -2
    2030            ;* r12   assigned to intchar1
    2031            $C$DW$163       .dwtag  DW_TAG_variable, DW_AT_name("intchar1")
    2032                    .dwattr $C$DW$163, DW_AT_TI_symbol_name("intchar1")
    2033                    .dwattr $C$DW$163, DW_AT_type(*$C$DW$T$10)
    2034                    .dwattr $C$DW$163, DW_AT_location[DW_OP_reg12]
    2035            ;* r11   assigned to intchar2
    2036            $C$DW$164       .dwtag  DW_TAG_variable, DW_AT_name("intchar2")
    2037                    .dwattr $C$DW$164, DW_AT_TI_symbol_name("intchar2")
    2038                    .dwattr $C$DW$164, DW_AT_type(*$C$DW$T$11)
    2039                    .dwattr $C$DW$164, DW_AT_location[DW_OP_reg11]
    2040                    .dwpsn  file "..\CDC.h",line 159,column 22,is_stmt,isa 0
    2041 000000 4C0B          MOV.W     r12,r11               ; [] |159| 
    2042                    .dwpsn  file "..\CDC.h",line 161,column 2,is_stmt,isa 0
    2043 000002 403D          MOV.W     #10000,r13            ; [] |161| 
         000004 2710 
    2044            $C$DW$165       .dwtag  DW_TAG_TI_branch
    2045                    .dwattr $C$DW$165, DW_AT_low_pc(0x00)
    2046                    .dwattr $C$DW$165, DW_AT_name("__mspabi_divu")
    2047                    .dwattr $C$DW$165, DW_AT_TI_call
    2048 000006 12B0          CALL      #__mspabi_divu        ; [] |161| 
         000008 0000!
    2049                                                      ; [] |161| 
    2050 00000a 4CC2          MOV.B     r12,&_DM+0            ; [] |161| 
         00000c 0000!
    2051                    .dwpsn  file "..\CDC.h",line 162,column 2,is_stmt,isa 0
    2052 00000e 425C          MOV.B     &_DM+0,r12            ; [] |162| 
         000010 0000!
    2053 000012 403D          MOV.W     #10000,r13            ; [] |162| 
         000014 2710 
    2054            $C$DW$166       .dwtag  DW_TAG_TI_branch
    2055                    .dwattr $C$DW$166, DW_AT_low_pc(0x00)
MSP430 Assembler PC v4.2.1 Sat Jan 28 11:33:17 2017

Tools Copyright (c) 2003-2013 Texas Instruments Incorporated
C:\Users\mauricio\AppData\Local\Temp\0876010                         PAGE   44

    2056                    .dwattr $C$DW$166, DW_AT_name("__mspabi_mpyi")
    2057                    .dwattr $C$DW$166, DW_AT_TI_call
    2058 000016 12B0          CALL      #__mspabi_mpyi        ; [] |162| 
         000018 0000!
    2059                                                      ; [] |162| 
    2060 00001a 4C0F          MOV.W     r12,r15               ; [] |162| 
    2061 00001c 4B0C          MOV.W     r11,r12               ; [] |162| 
    2062 00001e 8F0C          SUB.W     r15,r12               ; [] |162| 
    2063 000020 403D          MOV.W     #1000,r13             ; [] |162| 
         000022 03E8 
    2064            $C$DW$167       .dwtag  DW_TAG_TI_branch
    2065                    .dwattr $C$DW$167, DW_AT_low_pc(0x00)
    2066                    .dwattr $C$DW$167, DW_AT_name("__mspabi_divu")
    2067                    .dwattr $C$DW$167, DW_AT_TI_call
    2068 000024 12B0          CALL      #__mspabi_divu        ; [] |162| 
         000026 0000!
    2069                                                      ; [] |162| 
    2070 000028 4CC2          MOV.B     r12,&_UM+0            ; [] |162| 
         00002a 0000!
    2071                    .dwpsn  file "..\CDC.h",line 163,column 2,is_stmt,isa 0
    2072 00002c 425C          MOV.B     &_DM+0,r12            ; [] |163| 
         00002e 0000!
    2073 000030 403D          MOV.W     #10,r13               ; [] |163| 
         000032 000A 
    2074            $C$DW$168       .dwtag  DW_TAG_TI_branch
    2075                    .dwattr $C$DW$168, DW_AT_low_pc(0x00)
    2076                    .dwattr $C$DW$168, DW_AT_name("__mspabi_mpyi")
    2077                    .dwattr $C$DW$168, DW_AT_TI_call
    2078 000034 12B0          CALL      #__mspabi_mpyi        ; [] |163| 
         000036 0000!
    2079                                                      ; [] |163| 
    2080 000038 425F          MOV.B     &_UM+0,r15            ; [] |163| 
         00003a 0000!
    2081 00003c 5F0C          ADD.W     r15,r12               ; [] |163| 
    2082 00003e 403D          MOV.W     #1000,r13             ; [] |163| 
         000040 03E8 
    2083            $C$DW$169       .dwtag  DW_TAG_TI_branch
    2084                    .dwattr $C$DW$169, DW_AT_low_pc(0x00)
    2085                    .dwattr $C$DW$169, DW_AT_name("__mspabi_mpyi")
    2086                    .dwattr $C$DW$169, DW_AT_TI_call
    2087 000042 12B0          CALL      #__mspabi_mpyi        ; [] |163| 
         000044 0000!
    2088                                                      ; [] |163| 
    2089 000046 4C0F          MOV.W     r12,r15               ; [] |163| 
    2090 000048 4B0C          MOV.W     r11,r12               ; [] |163| 
    2091 00004a 8F0C          SUB.W     r15,r12               ; [] |163| 
    2092 00004c 403D          MOV.W     #100,r13              ; [] |163| 
         00004e 0064 
    2093            $C$DW$170       .dwtag  DW_TAG_TI_branch
    2094                    .dwattr $C$DW$170, DW_AT_low_pc(0x00)
    2095                    .dwattr $C$DW$170, DW_AT_name("__mspabi_divu")
    2096                    .dwattr $C$DW$170, DW_AT_TI_call
    2097 000050 12B0          CALL      #__mspabi_divu        ; [] |163| 
         000052 0000!
    2098                                                      ; [] |163| 
MSP430 Assembler PC v4.2.1 Sat Jan 28 11:33:17 2017

Tools Copyright (c) 2003-2013 Texas Instruments Incorporated
C:\Users\mauricio\AppData\Local\Temp\0876010                         PAGE   45

    2099 000054 4CC2          MOV.B     r12,&_C+0             ; [] |163| 
         000056 0000!
    2100                    .dwpsn  file "..\CDC.h",line 164,column 2,is_stmt,isa 0
    2101 000058 425C          MOV.B     &_DM+0,r12            ; [] |164| 
         00005a 0000!
    2102 00005c 403D          MOV.W     #10,r13               ; [] |164| 
         00005e 000A 
    2103            $C$DW$171       .dwtag  DW_TAG_TI_branch
    2104                    .dwattr $C$DW$171, DW_AT_low_pc(0x00)
    2105                    .dwattr $C$DW$171, DW_AT_name("__mspabi_mpyi")
    2106                    .dwattr $C$DW$171, DW_AT_TI_call
    2107 000060 12B0          CALL      #__mspabi_mpyi        ; [] |164| 
         000062 0000!
    2108                                                      ; [] |164| 
    2109 000064 425F          MOV.B     &_UM+0,r15            ; [] |164| 
         000066 0000!
    2110 000068 5F0C          ADD.W     r15,r12               ; [] |164| 
    2111 00006a 403D          MOV.W     #10,r13               ; [] |164| 
         00006c 000A 
    2112            $C$DW$172       .dwtag  DW_TAG_TI_branch
    2113                    .dwattr $C$DW$172, DW_AT_low_pc(0x00)
    2114                    .dwattr $C$DW$172, DW_AT_name("__mspabi_mpyi")
    2115                    .dwattr $C$DW$172, DW_AT_TI_call
    2116 00006e 12B0          CALL      #__mspabi_mpyi        ; [] |164| 
         000070 0000!
    2117                                                      ; [] |164| 
    2118 000072 425F          MOV.B     &_C+0,r15             ; [] |164| 
         000074 0000!
    2119 000076 5F0C          ADD.W     r15,r12               ; [] |164| 
    2120 000078 403D          MOV.W     #100,r13              ; [] |164| 
         00007a 0064 
    2121            $C$DW$173       .dwtag  DW_TAG_TI_branch
    2122                    .dwattr $C$DW$173, DW_AT_low_pc(0x00)
    2123                    .dwattr $C$DW$173, DW_AT_name("__mspabi_mpyi")
    2124                    .dwattr $C$DW$173, DW_AT_TI_call
    2125 00007c 12B0          CALL      #__mspabi_mpyi        ; [] |164| 
         00007e 0000!
    2126                                                      ; [] |164| 
    2127 000080 4C0F          MOV.W     r12,r15               ; [] |164| 
    2128 000082 4B0C          MOV.W     r11,r12               ; [] |164| 
    2129 000084 8F0C          SUB.W     r15,r12               ; [] |164| 
    2130 000086 403D          MOV.W     #10,r13               ; [] |164| 
         000088 000A 
    2131            $C$DW$174       .dwtag  DW_TAG_TI_branch
    2132                    .dwattr $C$DW$174, DW_AT_low_pc(0x00)
    2133                    .dwattr $C$DW$174, DW_AT_name("__mspabi_divu")
    2134                    .dwattr $C$DW$174, DW_AT_TI_call
    2135 00008a 12B0          CALL      #__mspabi_divu        ; [] |164| 
         00008c 0000!
    2136                                                      ; [] |164| 
    2137 00008e 4CC2          MOV.B     r12,&_D+0             ; [] |164| 
         000090 0000!
    2138                    .dwpsn  file "..\CDC.h",line 165,column 2,is_stmt,isa 0
    2139 000092 425C          MOV.B     &_DM+0,r12            ; [] |165| 
         000094 0000!
MSP430 Assembler PC v4.2.1 Sat Jan 28 11:33:17 2017

Tools Copyright (c) 2003-2013 Texas Instruments Incorporated
C:\Users\mauricio\AppData\Local\Temp\0876010                         PAGE   46

    2140 000096 403D          MOV.W     #10,r13               ; [] |165| 
         000098 000A 
    2141            $C$DW$175       .dwtag  DW_TAG_TI_branch
    2142                    .dwattr $C$DW$175, DW_AT_low_pc(0x00)
    2143                    .dwattr $C$DW$175, DW_AT_name("__mspabi_mpyi")
    2144                    .dwattr $C$DW$175, DW_AT_TI_call
    2145 00009a 12B0          CALL      #__mspabi_mpyi        ; [] |165| 
         00009c 0000!
    2146                                                      ; [] |165| 
    2147            ;* --------------------------------------------------------------------------*
    2148 00009e 425F          MOV.B     &_UM+0,r15            ; [] |165| 
         0000a0 0000!
    2149 0000a2 5F0C          ADD.W     r15,r12               ; [] |165| 
    2150 0000a4 403D          MOV.W     #10,r13               ; [] |165| 
         0000a6 000A 
    2151            $C$DW$176       .dwtag  DW_TAG_TI_branch
    2152                    .dwattr $C$DW$176, DW_AT_low_pc(0x00)
    2153                    .dwattr $C$DW$176, DW_AT_name("__mspabi_mpyi")
    2154                    .dwattr $C$DW$176, DW_AT_TI_call
    2155 0000a8 12B0          CALL      #__mspabi_mpyi        ; [] |165| 
         0000aa 0000!
    2156                                                      ; [] |165| 
    2157 0000ac 425F          MOV.B     &_C+0,r15             ; [] |165| 
         0000ae 0000!
    2158 0000b0 5F0C          ADD.W     r15,r12               ; [] |165| 
    2159 0000b2 403D          MOV.W     #10,r13               ; [] |165| 
         0000b4 000A 
    2160            $C$DW$177       .dwtag  DW_TAG_TI_branch
    2161                    .dwattr $C$DW$177, DW_AT_low_pc(0x00)
    2162                    .dwattr $C$DW$177, DW_AT_name("__mspabi_mpyi")
    2163                    .dwattr $C$DW$177, DW_AT_TI_call
    2164 0000b6 12B0          CALL      #__mspabi_mpyi        ; [] |165| 
         0000b8 0000!
    2165                                                      ; [] |165| 
    2166 0000ba 425F          MOV.B     &_D+0,r15             ; [] |165| 
         0000bc 0000!
    2167 0000be 5F0C          ADD.W     r15,r12               ; [] |165| 
    2168 0000c0 403D          MOV.W     #10,r13               ; [] |165| 
         0000c2 000A 
    2169            $C$DW$178       .dwtag  DW_TAG_TI_branch
    2170                    .dwattr $C$DW$178, DW_AT_low_pc(0x00)
    2171                    .dwattr $C$DW$178, DW_AT_name("__mspabi_mpyi")
    2172                    .dwattr $C$DW$178, DW_AT_TI_call
    2173 0000c4 12B0          CALL      #__mspabi_mpyi        ; [] |165| 
         0000c6 0000!
    2174                                                      ; [] |165| 
    2175 0000c8 8C4B          SUB.B     r12,r11               ; [] |165| 
    2176 0000ca 4BC2          MOV.B     r11,&_U+0             ; [] |165| 
         0000cc 0000!
    2177                    .dwpsn  file "..\CDC.h",line 167,column 2,is_stmt,isa 0
    2178 0000ce 403F          MOV.W     #48,r15               ; [] |167| 
         0000d0 0030 
    2179 0000d2 525F          ADD.B     &_DM+0,r15            ; [] |167| 
         0000d4 0000!
    2180 0000d6 4FC2          MOV.B     r15,&aux_char+1       ; [] |167| 
MSP430 Assembler PC v4.2.1 Sat Jan 28 11:33:17 2017

Tools Copyright (c) 2003-2013 Texas Instruments Incorporated
C:\Users\mauricio\AppData\Local\Temp\0876010                         PAGE   47

         0000d8 0001!
    2181                    .dwpsn  file "..\CDC.h",line 168,column 2,is_stmt,isa 0
    2182 0000da 403F          MOV.W     #48,r15               ; [] |168| 
         0000dc 0030 
    2183 0000de 525F          ADD.B     &_UM+0,r15            ; [] |168| 
         0000e0 0000!
    2184 0000e2 4FC2          MOV.B     r15,&aux_char+2       ; [] |168| 
         0000e4 0002!
    2185                    .dwpsn  file "..\CDC.h",line 169,column 2,is_stmt,isa 0
    2186 0000e6 403F          MOV.W     #48,r15               ; [] |169| 
         0000e8 0030 
    2187 0000ea 525F          ADD.B     &_C+0,r15             ; [] |169| 
         0000ec 0000!
    2188 0000ee 4FC2          MOV.B     r15,&aux_char+3       ; [] |169| 
         0000f0 0003!
    2189                    .dwpsn  file "..\CDC.h",line 170,column 2,is_stmt,isa 0
    2190 0000f2 403F          MOV.W     #48,r15               ; [] |170| 
         0000f4 0030 
    2191 0000f6 525F          ADD.B     &_D+0,r15             ; [] |170| 
         0000f8 0000!
    2192 0000fa 4FC2          MOV.B     r15,&aux_char+4       ; [] |170| 
         0000fc 0004!
    2193                    .dwpsn  file "..\CDC.h",line 171,column 2,is_stmt,isa 0
    2194 0000fe 403F          MOV.W     #48,r15               ; [] |171| 
         000100 0030 
    2195 000102 525F          ADD.B     &_U+0,r15             ; [] |171| 
         000104 0000!
    2196 000106 4FC2          MOV.B     r15,&aux_char+5       ; [] |171| 
         000108 0005!
    2197                    .dwpsn  file "..\CDC.h",line 172,column 2,is_stmt,isa 0
    2198 00010a 403C          MOV.W     #aux_char+0,r12       ; [] |172| 
         00010c 0000!
    2199            $C$DW$179       .dwtag  DW_TAG_TI_branch
    2200                    .dwattr $C$DW$179, DW_AT_low_pc(0x00)
    2201                    .dwattr $C$DW$179, DW_AT_name("ec")
    2202                    .dwattr $C$DW$179, DW_AT_TI_call
    2203 00010e 12B0          CALL      #ec                   ; [] |172| 
         000110 0000!
    2204                                                      ; [] |172| 
    2205                    .dwpsn  file "..\CDC.h",line 173,column 1,is_stmt,isa 0
    2206            $C$DW$180       .dwtag  DW_TAG_TI_branch
    2207                    .dwattr $C$DW$180, DW_AT_low_pc(0x00)
    2208                    .dwattr $C$DW$180, DW_AT_TI_return
    2209 000112 4130          RET       ; [] 
    2210                    ; [] 
    2211                    .dwattr $C$DW$161, DW_AT_TI_end_file("..\CDC.h")
    2212                    .dwattr $C$DW$161, DW_AT_TI_end_line(0xad)
    2213                    .dwattr $C$DW$161, DW_AT_TI_end_column(0x01)
    2214                    .dwendentry
    2215                    .dwendtag $C$DW$161
    2216            
    2217 000000               .sect   ".text:printchar2c"
    2218                    .align  2
    2219                    .clink
    2220                    .global printchar2c
MSP430 Assembler PC v4.2.1 Sat Jan 28 11:33:17 2017

Tools Copyright (c) 2003-2013 Texas Instruments Incorporated
C:\Users\mauricio\AppData\Local\Temp\0876010                         PAGE   48

    2221            
    2222            $C$DW$181       .dwtag  DW_TAG_subprogram, DW_AT_name("printchar2c")
    2223                    .dwattr $C$DW$181, DW_AT_low_pc(printchar2c)
    2224                    .dwattr $C$DW$181, DW_AT_high_pc(0x00)
    2225                    .dwattr $C$DW$181, DW_AT_TI_symbol_name("printchar2c")
    2226                    .dwattr $C$DW$181, DW_AT_external
    2227                    .dwattr $C$DW$181, DW_AT_TI_begin_file("..\CDC.h")
    2228                    .dwattr $C$DW$181, DW_AT_TI_begin_line(0xaf)
    2229                    .dwattr $C$DW$181, DW_AT_TI_begin_column(0x06)
    2230                    .dwattr $C$DW$181, DW_AT_decl_file("..\CDC.h")
    2231                    .dwattr $C$DW$181, DW_AT_decl_line(0xaf)
    2232                    .dwattr $C$DW$181, DW_AT_decl_column(0x06)
    2233                    .dwattr $C$DW$181, DW_AT_TI_max_frame_size(0x02)
    2234                    .dwpsn  file "..\CDC.h",line 176,column 1,is_stmt,address printchar2c,isa 0
    2235            
    2236                    .dwfde $C$DW$CIE, printchar2c
    2237            $C$DW$182       .dwtag  DW_TAG_formal_parameter, DW_AT_name("int2cchar")
    2238                    .dwattr $C$DW$182, DW_AT_TI_symbol_name("int2cchar")
    2239                    .dwattr $C$DW$182, DW_AT_type(*$C$DW$T$11)
    2240                    .dwattr $C$DW$182, DW_AT_location[DW_OP_reg12]
    2241            
    2242            ;*****************************************************************************
    2243            ;* FUNCTION NAME: printchar2c                                                *
    2244            ;*                                                                           *
    2245            ;*   Regs Modified     : SP,SR,r11,r12,r13,r14,r15                           *
    2246            ;*   Regs Used         : SP,SR,r11,r12,r13,r14,r15                           *
    2247            ;*   Local Frame Size  : 0 Args + 0 Auto + 0 Save = 0 byte                   *
    2248            ;*****************************************************************************
    2249 000000       printchar2c:
    2250            ;* --------------------------------------------------------------------------*
    2251                    .dwcfi  cfa_offset, 2
    2252                    .dwcfi  save_reg_to_mem, 16, -2
    2253            ;* r11   assigned to int2cchar
    2254            $C$DW$183       .dwtag  DW_TAG_variable, DW_AT_name("int2cchar")
    2255                    .dwattr $C$DW$183, DW_AT_TI_symbol_name("int2cchar")
    2256                    .dwattr $C$DW$183, DW_AT_type(*$C$DW$T$11)
    2257                    .dwattr $C$DW$183, DW_AT_location[DW_OP_reg11]
    2258 000000 4C0B          MOV.W     r12,r11               ; [] |176| 
    2259                    .dwpsn  file "..\CDC.h",line 179,column 2,is_stmt,isa 0
    2260 000002 E33B          INV.W     r11                   ; [] |179| 
    2261 000004 531B          ADD.W     #1,r11                ; [] |179| 
    2262                    .dwpsn  file "..\CDC.h",line 180,column 2,is_stmt,isa 0
    2263 000006 4B0C          MOV.W     r11,r12               ; [] |180| 
    2264 000008 403D          MOV.W     #10000,r13            ; [] |180| 
         00000a 2710 
    2265            $C$DW$184       .dwtag  DW_TAG_TI_branch
    2266                    .dwattr $C$DW$184, DW_AT_low_pc(0x00)
    2267                    .dwattr $C$DW$184, DW_AT_name("__mspabi_divu")
    2268                    .dwattr $C$DW$184, DW_AT_TI_call
    2269 00000c 12B0          CALL      #__mspabi_divu        ; [] |180| 
         00000e 0000!
    2270                                                      ; [] |180| 
    2271 000010 4CC2          MOV.B     r12,&_DM+0            ; [] |180| 
         000012 0000!
    2272                    .dwpsn  file "..\CDC.h",line 181,column 2,is_stmt,isa 0
MSP430 Assembler PC v4.2.1 Sat Jan 28 11:33:17 2017

Tools Copyright (c) 2003-2013 Texas Instruments Incorporated
C:\Users\mauricio\AppData\Local\Temp\0876010                         PAGE   49

    2273 000014 425C          MOV.B     &_DM+0,r12            ; [] |181| 
         000016 0000!
    2274 000018 403D          MOV.W     #10000,r13            ; [] |181| 
         00001a 2710 
    2275            $C$DW$185       .dwtag  DW_TAG_TI_branch
    2276                    .dwattr $C$DW$185, DW_AT_low_pc(0x00)
    2277                    .dwattr $C$DW$185, DW_AT_name("__mspabi_mpyi")
    2278                    .dwattr $C$DW$185, DW_AT_TI_call
    2279 00001c 12B0          CALL      #__mspabi_mpyi        ; [] |181| 
         00001e 0000!
    2280                                                      ; [] |181| 
    2281 000020 4C0F          MOV.W     r12,r15               ; [] |181| 
    2282 000022 4B0C          MOV.W     r11,r12               ; [] |181| 
    2283 000024 8F0C          SUB.W     r15,r12               ; [] |181| 
    2284 000026 403D          MOV.W     #1000,r13             ; [] |181| 
         000028 03E8 
    2285            $C$DW$186       .dwtag  DW_TAG_TI_branch
    2286                    .dwattr $C$DW$186, DW_AT_low_pc(0x00)
    2287                    .dwattr $C$DW$186, DW_AT_name("__mspabi_divu")
    2288                    .dwattr $C$DW$186, DW_AT_TI_call
    2289 00002a 12B0          CALL      #__mspabi_divu        ; [] |181| 
         00002c 0000!
    2290                                                      ; [] |181| 
    2291 00002e 4CC2          MOV.B     r12,&_UM+0            ; [] |181| 
         000030 0000!
    2292                    .dwpsn  file "..\CDC.h",line 182,column 2,is_stmt,isa 0
    2293 000032 425C          MOV.B     &_DM+0,r12            ; [] |182| 
         000034 0000!
    2294 000036 403D          MOV.W     #10,r13               ; [] |182| 
         000038 000A 
    2295            $C$DW$187       .dwtag  DW_TAG_TI_branch
    2296                    .dwattr $C$DW$187, DW_AT_low_pc(0x00)
    2297                    .dwattr $C$DW$187, DW_AT_name("__mspabi_mpyi")
    2298                    .dwattr $C$DW$187, DW_AT_TI_call
    2299 00003a 12B0          CALL      #__mspabi_mpyi        ; [] |182| 
         00003c 0000!
    2300                                                      ; [] |182| 
    2301 00003e 425F          MOV.B     &_UM+0,r15            ; [] |182| 
         000040 0000!
    2302 000042 5F0C          ADD.W     r15,r12               ; [] |182| 
    2303 000044 403D          MOV.W     #1000,r13             ; [] |182| 
         000046 03E8 
    2304            $C$DW$188       .dwtag  DW_TAG_TI_branch
    2305                    .dwattr $C$DW$188, DW_AT_low_pc(0x00)
    2306                    .dwattr $C$DW$188, DW_AT_name("__mspabi_mpyi")
    2307                    .dwattr $C$DW$188, DW_AT_TI_call
    2308 000048 12B0          CALL      #__mspabi_mpyi        ; [] |182| 
         00004a 0000!
    2309                                                      ; [] |182| 
    2310 00004c 4C0F          MOV.W     r12,r15               ; [] |182| 
    2311 00004e 4B0C          MOV.W     r11,r12               ; [] |182| 
    2312 000050 8F0C          SUB.W     r15,r12               ; [] |182| 
    2313 000052 403D          MOV.W     #100,r13              ; [] |182| 
         000054 0064 
    2314            $C$DW$189       .dwtag  DW_TAG_TI_branch
MSP430 Assembler PC v4.2.1 Sat Jan 28 11:33:17 2017

Tools Copyright (c) 2003-2013 Texas Instruments Incorporated
C:\Users\mauricio\AppData\Local\Temp\0876010                         PAGE   50

    2315                    .dwattr $C$DW$189, DW_AT_low_pc(0x00)
    2316                    .dwattr $C$DW$189, DW_AT_name("__mspabi_divu")
    2317                    .dwattr $C$DW$189, DW_AT_TI_call
    2318 000056 12B0          CALL      #__mspabi_divu        ; [] |182| 
         000058 0000!
    2319                                                      ; [] |182| 
    2320 00005a 4CC2          MOV.B     r12,&_C+0             ; [] |182| 
         00005c 0000!
    2321                    .dwpsn  file "..\CDC.h",line 183,column 2,is_stmt,isa 0
    2322 00005e 425C          MOV.B     &_DM+0,r12            ; [] |183| 
         000060 0000!
    2323 000062 403D          MOV.W     #10,r13               ; [] |183| 
         000064 000A 
    2324            $C$DW$190       .dwtag  DW_TAG_TI_branch
    2325                    .dwattr $C$DW$190, DW_AT_low_pc(0x00)
    2326                    .dwattr $C$DW$190, DW_AT_name("__mspabi_mpyi")
    2327                    .dwattr $C$DW$190, DW_AT_TI_call
    2328 000066 12B0          CALL      #__mspabi_mpyi        ; [] |183| 
         000068 0000!
    2329                                                      ; [] |183| 
    2330 00006a 425F          MOV.B     &_UM+0,r15            ; [] |183| 
         00006c 0000!
    2331 00006e 5F0C          ADD.W     r15,r12               ; [] |183| 
    2332 000070 403D          MOV.W     #10,r13               ; [] |183| 
         000072 000A 
    2333            $C$DW$191       .dwtag  DW_TAG_TI_branch
    2334                    .dwattr $C$DW$191, DW_AT_low_pc(0x00)
    2335                    .dwattr $C$DW$191, DW_AT_name("__mspabi_mpyi")
    2336                    .dwattr $C$DW$191, DW_AT_TI_call
    2337 000074 12B0          CALL      #__mspabi_mpyi        ; [] |183| 
         000076 0000!
    2338                                                      ; [] |183| 
    2339 000078 425F          MOV.B     &_C+0,r15             ; [] |183| 
         00007a 0000!
    2340 00007c 5F0C          ADD.W     r15,r12               ; [] |183| 
    2341 00007e 403D          MOV.W     #100,r13              ; [] |183| 
         000080 0064 
    2342            $C$DW$192       .dwtag  DW_TAG_TI_branch
    2343                    .dwattr $C$DW$192, DW_AT_low_pc(0x00)
    2344                    .dwattr $C$DW$192, DW_AT_name("__mspabi_mpyi")
    2345                    .dwattr $C$DW$192, DW_AT_TI_call
    2346 000082 12B0          CALL      #__mspabi_mpyi        ; [] |183| 
         000084 0000!
    2347                                                      ; [] |183| 
    2348 000086 4C0F          MOV.W     r12,r15               ; [] |183| 
    2349 000088 4B0C          MOV.W     r11,r12               ; [] |183| 
    2350 00008a 8F0C          SUB.W     r15,r12               ; [] |183| 
    2351 00008c 403D          MOV.W     #10,r13               ; [] |183| 
         00008e 000A 
    2352            $C$DW$193       .dwtag  DW_TAG_TI_branch
    2353                    .dwattr $C$DW$193, DW_AT_low_pc(0x00)
    2354                    .dwattr $C$DW$193, DW_AT_name("__mspabi_divu")
    2355                    .dwattr $C$DW$193, DW_AT_TI_call
    2356 000090 12B0          CALL      #__mspabi_divu        ; [] |183| 
         000092 0000!
MSP430 Assembler PC v4.2.1 Sat Jan 28 11:33:17 2017

Tools Copyright (c) 2003-2013 Texas Instruments Incorporated
C:\Users\mauricio\AppData\Local\Temp\0876010                         PAGE   51

    2357                                                      ; [] |183| 
    2358 000094 4CC2          MOV.B     r12,&_D+0             ; [] |183| 
         000096 0000!
    2359                    .dwpsn  file "..\CDC.h",line 184,column 2,is_stmt,isa 0
    2360 000098 425C          MOV.B     &_DM+0,r12            ; [] |184| 
         00009a 0000!
    2361 00009c 403D          MOV.W     #10,r13               ; [] |184| 
         00009e 000A 
    2362            $C$DW$194       .dwtag  DW_TAG_TI_branch
    2363                    .dwattr $C$DW$194, DW_AT_low_pc(0x00)
    2364                    .dwattr $C$DW$194, DW_AT_name("__mspabi_mpyi")
    2365                    .dwattr $C$DW$194, DW_AT_TI_call
    2366 0000a0 12B0          CALL      #__mspabi_mpyi        ; [] |184| 
         0000a2 0000!
    2367                                                      ; [] |184| 
    2368            ;* --------------------------------------------------------------------------*
    2369 0000a4 425F          MOV.B     &_UM+0,r15            ; [] |184| 
         0000a6 0000!
    2370 0000a8 5F0C          ADD.W     r15,r12               ; [] |184| 
    2371 0000aa 403D          MOV.W     #10,r13               ; [] |184| 
         0000ac 000A 
    2372            $C$DW$195       .dwtag  DW_TAG_TI_branch
    2373                    .dwattr $C$DW$195, DW_AT_low_pc(0x00)
    2374                    .dwattr $C$DW$195, DW_AT_name("__mspabi_mpyi")
    2375                    .dwattr $C$DW$195, DW_AT_TI_call
    2376 0000ae 12B0          CALL      #__mspabi_mpyi        ; [] |184| 
         0000b0 0000!
    2377                                                      ; [] |184| 
    2378 0000b2 425F          MOV.B     &_C+0,r15             ; [] |184| 
         0000b4 0000!
    2379 0000b6 5F0C          ADD.W     r15,r12               ; [] |184| 
    2380 0000b8 403D          MOV.W     #10,r13               ; [] |184| 
         0000ba 000A 
    2381            $C$DW$196       .dwtag  DW_TAG_TI_branch
    2382                    .dwattr $C$DW$196, DW_AT_low_pc(0x00)
    2383                    .dwattr $C$DW$196, DW_AT_name("__mspabi_mpyi")
    2384                    .dwattr $C$DW$196, DW_AT_TI_call
    2385 0000bc 12B0          CALL      #__mspabi_mpyi        ; [] |184| 
         0000be 0000!
    2386                                                      ; [] |184| 
    2387 0000c0 425F          MOV.B     &_D+0,r15             ; [] |184| 
         0000c2 0000!
    2388 0000c4 5F0C          ADD.W     r15,r12               ; [] |184| 
    2389 0000c6 403D          MOV.W     #10,r13               ; [] |184| 
         0000c8 000A 
    2390            $C$DW$197       .dwtag  DW_TAG_TI_branch
    2391                    .dwattr $C$DW$197, DW_AT_low_pc(0x00)
    2392                    .dwattr $C$DW$197, DW_AT_name("__mspabi_mpyi")
    2393                    .dwattr $C$DW$197, DW_AT_TI_call
    2394 0000ca 12B0          CALL      #__mspabi_mpyi        ; [] |184| 
         0000cc 0000!
    2395                                                      ; [] |184| 
    2396 0000ce 8C4B          SUB.B     r12,r11               ; [] |184| 
    2397 0000d0 4BC2          MOV.B     r11,&_U+0             ; [] |184| 
         0000d2 0000!
MSP430 Assembler PC v4.2.1 Sat Jan 28 11:33:17 2017

Tools Copyright (c) 2003-2013 Texas Instruments Incorporated
C:\Users\mauricio\AppData\Local\Temp\0876010                         PAGE   52

    2398                    .dwpsn  file "..\CDC.h",line 186,column 2,is_stmt,isa 0
    2399 0000d4 403F          MOV.W     #48,r15               ; [] |186| 
         0000d6 0030 
    2400 0000d8 525F          ADD.B     &_DM+0,r15            ; [] |186| 
         0000da 0000!
    2401 0000dc 4FC2          MOV.B     r15,&aux_char+1       ; [] |186| 
         0000de 0001!
    2402                    .dwpsn  file "..\CDC.h",line 187,column 2,is_stmt,isa 0
    2403 0000e0 403F          MOV.W     #48,r15               ; [] |187| 
         0000e2 0030 
    2404 0000e4 525F          ADD.B     &_UM+0,r15            ; [] |187| 
         0000e6 0000!
    2405 0000e8 4FC2          MOV.B     r15,&aux_char+2       ; [] |187| 
         0000ea 0002!
    2406                    .dwpsn  file "..\CDC.h",line 188,column 2,is_stmt,isa 0
    2407 0000ec 403F          MOV.W     #48,r15               ; [] |188| 
         0000ee 0030 
    2408 0000f0 525F          ADD.B     &_C+0,r15             ; [] |188| 
         0000f2 0000!
    2409 0000f4 4FC2          MOV.B     r15,&aux_char+3       ; [] |188| 
         0000f6 0003!
    2410                    .dwpsn  file "..\CDC.h",line 189,column 2,is_stmt,isa 0
    2411 0000f8 403F          MOV.W     #48,r15               ; [] |189| 
         0000fa 0030 
    2412 0000fc 525F          ADD.B     &_D+0,r15             ; [] |189| 
         0000fe 0000!
    2413 000100 4FC2          MOV.B     r15,&aux_char+4       ; [] |189| 
         000102 0004!
    2414                    .dwpsn  file "..\CDC.h",line 190,column 2,is_stmt,isa 0
    2415 000104 403F          MOV.W     #48,r15               ; [] |190| 
         000106 0030 
    2416 000108 525F          ADD.B     &_U+0,r15             ; [] |190| 
         00010a 0000!
    2417 00010c 4FC2          MOV.B     r15,&aux_char+5       ; [] |190| 
         00010e 0005!
    2418                    .dwpsn  file "..\CDC.h",line 191,column 2,is_stmt,isa 0
    2419 000110 403C          MOV.W     #aux_char+0,r12       ; [] |191| 
         000112 0000!
    2420            $C$DW$198       .dwtag  DW_TAG_TI_branch
    2421                    .dwattr $C$DW$198, DW_AT_low_pc(0x00)
    2422                    .dwattr $C$DW$198, DW_AT_name("ec")
    2423                    .dwattr $C$DW$198, DW_AT_TI_call
    2424 000114 12B0          CALL      #ec                   ; [] |191| 
         000116 0000!
    2425                                                      ; [] |191| 
    2426                    .dwpsn  file "..\CDC.h",line 192,column 1,is_stmt,isa 0
    2427            $C$DW$199       .dwtag  DW_TAG_TI_branch
    2428                    .dwattr $C$DW$199, DW_AT_low_pc(0x00)
    2429                    .dwattr $C$DW$199, DW_AT_TI_return
    2430 000118 4130          RET       ; [] 
    2431                    ; [] 
    2432                    .dwattr $C$DW$181, DW_AT_TI_end_file("..\CDC.h")
    2433                    .dwattr $C$DW$181, DW_AT_TI_end_line(0xc0)
    2434                    .dwattr $C$DW$181, DW_AT_TI_end_column(0x01)
    2435                    .dwendentry
MSP430 Assembler PC v4.2.1 Sat Jan 28 11:33:17 2017

Tools Copyright (c) 2003-2013 Texas Instruments Incorporated
C:\Users\mauricio\AppData\Local\Temp\0876010                         PAGE   53

    2436                    .dwendtag $C$DW$181
    2437            
    2438 000000               .sect   ".text:printuint"
    2439                    .align  2
    2440                    .clink
    2441                    .global printuint
    2442            
    2443            $C$DW$200       .dwtag  DW_TAG_subprogram, DW_AT_name("printuint")
    2444                    .dwattr $C$DW$200, DW_AT_low_pc(printuint)
    2445                    .dwattr $C$DW$200, DW_AT_high_pc(0x00)
    2446                    .dwattr $C$DW$200, DW_AT_TI_symbol_name("printuint")
    2447                    .dwattr $C$DW$200, DW_AT_external
    2448                    .dwattr $C$DW$200, DW_AT_TI_begin_file("..\CDC.h")
    2449                    .dwattr $C$DW$200, DW_AT_TI_begin_line(0xc3)
    2450                    .dwattr $C$DW$200, DW_AT_TI_begin_column(0x06)
    2451                    .dwattr $C$DW$200, DW_AT_decl_file("..\CDC.h")
    2452                    .dwattr $C$DW$200, DW_AT_decl_line(0xc3)
    2453                    .dwattr $C$DW$200, DW_AT_decl_column(0x06)
    2454                    .dwattr $C$DW$200, DW_AT_TI_max_frame_size(0x02)
    2455                    .dwpsn  file "..\CDC.h",line 196,column 1,is_stmt,address printuint,isa 0
    2456            
    2457                    .dwfde $C$DW$CIE, printuint
    2458            $C$DW$201       .dwtag  DW_TAG_formal_parameter, DW_AT_name("intchar1")
    2459                    .dwattr $C$DW$201, DW_AT_TI_symbol_name("intchar1")
    2460                    .dwattr $C$DW$201, DW_AT_type(*$C$DW$T$11)
    2461                    .dwattr $C$DW$201, DW_AT_location[DW_OP_reg12]
    2462            
    2463            ;*****************************************************************************
    2464            ;* FUNCTION NAME: printuint                                                  *
    2465            ;*                                                                           *
    2466            ;*   Regs Modified     : SP,SR,r11,r12,r13,r14,r15                           *
    2467            ;*   Regs Used         : SP,SR,r11,r12,r13,r14,r15                           *
    2468            ;*   Local Frame Size  : 0 Args + 0 Auto + 0 Save = 0 byte                   *
    2469            ;*****************************************************************************
    2470 000000       printuint:
    2471            ;* --------------------------------------------------------------------------*
    2472                    .dwcfi  cfa_offset, 2
    2473                    .dwcfi  save_reg_to_mem, 16, -2
    2474            ;* r11   assigned to intchar1
    2475            $C$DW$202       .dwtag  DW_TAG_variable, DW_AT_name("intchar1")
    2476                    .dwattr $C$DW$202, DW_AT_TI_symbol_name("intchar1")
    2477                    .dwattr $C$DW$202, DW_AT_type(*$C$DW$T$11)
    2478                    .dwattr $C$DW$202, DW_AT_location[DW_OP_reg11]
    2479 000000 4C0B          MOV.W     r12,r11               ; [] |196| 
    2480                    .dwpsn  file "..\CDC.h",line 197,column 2,is_stmt,isa 0
    2481 000002 403D          MOV.W     #10000,r13            ; [] |197| 
         000004 2710 
    2482            $C$DW$203       .dwtag  DW_TAG_TI_branch
    2483                    .dwattr $C$DW$203, DW_AT_low_pc(0x00)
    2484                    .dwattr $C$DW$203, DW_AT_name("__mspabi_divu")
    2485                    .dwattr $C$DW$203, DW_AT_TI_call
    2486 000006 12B0          CALL      #__mspabi_divu        ; [] |197| 
         000008 0000!
    2487                                                      ; [] |197| 
    2488 00000a 4CC2          MOV.B     r12,&_DM+0            ; [] |197| 
MSP430 Assembler PC v4.2.1 Sat Jan 28 11:33:17 2017

Tools Copyright (c) 2003-2013 Texas Instruments Incorporated
C:\Users\mauricio\AppData\Local\Temp\0876010                         PAGE   54

         00000c 0000!
    2489                    .dwpsn  file "..\CDC.h",line 198,column 2,is_stmt,isa 0
    2490 00000e 425C          MOV.B     &_DM+0,r12            ; [] |198| 
         000010 0000!
    2491 000012 403D          MOV.W     #10000,r13            ; [] |198| 
         000014 2710 
    2492            $C$DW$204       .dwtag  DW_TAG_TI_branch
    2493                    .dwattr $C$DW$204, DW_AT_low_pc(0x00)
    2494                    .dwattr $C$DW$204, DW_AT_name("__mspabi_mpyi")
    2495                    .dwattr $C$DW$204, DW_AT_TI_call
    2496 000016 12B0          CALL      #__mspabi_mpyi        ; [] |198| 
         000018 0000!
    2497                                                      ; [] |198| 
    2498 00001a 4C0F          MOV.W     r12,r15               ; [] |198| 
    2499 00001c 4B0C          MOV.W     r11,r12               ; [] |198| 
    2500 00001e 8F0C          SUB.W     r15,r12               ; [] |198| 
    2501 000020 403D          MOV.W     #1000,r13             ; [] |198| 
         000022 03E8 
    2502            $C$DW$205       .dwtag  DW_TAG_TI_branch
    2503                    .dwattr $C$DW$205, DW_AT_low_pc(0x00)
    2504                    .dwattr $C$DW$205, DW_AT_name("__mspabi_divu")
    2505                    .dwattr $C$DW$205, DW_AT_TI_call
    2506 000024 12B0          CALL      #__mspabi_divu        ; [] |198| 
         000026 0000!
    2507                                                      ; [] |198| 
    2508 000028 4CC2          MOV.B     r12,&_UM+0            ; [] |198| 
         00002a 0000!
    2509                    .dwpsn  file "..\CDC.h",line 199,column 2,is_stmt,isa 0
    2510 00002c 425C          MOV.B     &_DM+0,r12            ; [] |199| 
         00002e 0000!
    2511 000030 403D          MOV.W     #10,r13               ; [] |199| 
         000032 000A 
    2512            $C$DW$206       .dwtag  DW_TAG_TI_branch
    2513                    .dwattr $C$DW$206, DW_AT_low_pc(0x00)
    2514                    .dwattr $C$DW$206, DW_AT_name("__mspabi_mpyi")
    2515                    .dwattr $C$DW$206, DW_AT_TI_call
    2516 000034 12B0          CALL      #__mspabi_mpyi        ; [] |199| 
         000036 0000!
    2517                                                      ; [] |199| 
    2518 000038 425F          MOV.B     &_UM+0,r15            ; [] |199| 
         00003a 0000!
    2519 00003c 5F0C          ADD.W     r15,r12               ; [] |199| 
    2520 00003e 403D          MOV.W     #1000,r13             ; [] |199| 
         000040 03E8 
    2521            $C$DW$207       .dwtag  DW_TAG_TI_branch
    2522                    .dwattr $C$DW$207, DW_AT_low_pc(0x00)
    2523                    .dwattr $C$DW$207, DW_AT_name("__mspabi_mpyi")
    2524                    .dwattr $C$DW$207, DW_AT_TI_call
    2525 000042 12B0          CALL      #__mspabi_mpyi        ; [] |199| 
         000044 0000!
    2526                                                      ; [] |199| 
    2527 000046 4C0F          MOV.W     r12,r15               ; [] |199| 
    2528 000048 4B0C          MOV.W     r11,r12               ; [] |199| 
    2529 00004a 8F0C          SUB.W     r15,r12               ; [] |199| 
    2530 00004c 403D          MOV.W     #100,r13              ; [] |199| 
MSP430 Assembler PC v4.2.1 Sat Jan 28 11:33:17 2017

Tools Copyright (c) 2003-2013 Texas Instruments Incorporated
C:\Users\mauricio\AppData\Local\Temp\0876010                         PAGE   55

         00004e 0064 
    2531            $C$DW$208       .dwtag  DW_TAG_TI_branch
    2532                    .dwattr $C$DW$208, DW_AT_low_pc(0x00)
    2533                    .dwattr $C$DW$208, DW_AT_name("__mspabi_divu")
    2534                    .dwattr $C$DW$208, DW_AT_TI_call
    2535 000050 12B0          CALL      #__mspabi_divu        ; [] |199| 
         000052 0000!
    2536                                                      ; [] |199| 
    2537 000054 4CC2          MOV.B     r12,&_C+0             ; [] |199| 
         000056 0000!
    2538                    .dwpsn  file "..\CDC.h",line 200,column 2,is_stmt,isa 0
    2539 000058 425C          MOV.B     &_DM+0,r12            ; [] |200| 
         00005a 0000!
    2540 00005c 403D          MOV.W     #10,r13               ; [] |200| 
         00005e 000A 
    2541            $C$DW$209       .dwtag  DW_TAG_TI_branch
    2542                    .dwattr $C$DW$209, DW_AT_low_pc(0x00)
    2543                    .dwattr $C$DW$209, DW_AT_name("__mspabi_mpyi")
    2544                    .dwattr $C$DW$209, DW_AT_TI_call
    2545 000060 12B0          CALL      #__mspabi_mpyi        ; [] |200| 
         000062 0000!
    2546                                                      ; [] |200| 
    2547 000064 425F          MOV.B     &_UM+0,r15            ; [] |200| 
         000066 0000!
    2548 000068 5F0C          ADD.W     r15,r12               ; [] |200| 
    2549 00006a 403D          MOV.W     #10,r13               ; [] |200| 
         00006c 000A 
    2550            $C$DW$210       .dwtag  DW_TAG_TI_branch
    2551                    .dwattr $C$DW$210, DW_AT_low_pc(0x00)
    2552                    .dwattr $C$DW$210, DW_AT_name("__mspabi_mpyi")
    2553                    .dwattr $C$DW$210, DW_AT_TI_call
    2554 00006e 12B0          CALL      #__mspabi_mpyi        ; [] |200| 
         000070 0000!
    2555                                                      ; [] |200| 
    2556 000072 425F          MOV.B     &_C+0,r15             ; [] |200| 
         000074 0000!
    2557 000076 5F0C          ADD.W     r15,r12               ; [] |200| 
    2558 000078 403D          MOV.W     #100,r13              ; [] |200| 
         00007a 0064 
    2559            $C$DW$211       .dwtag  DW_TAG_TI_branch
    2560                    .dwattr $C$DW$211, DW_AT_low_pc(0x00)
    2561                    .dwattr $C$DW$211, DW_AT_name("__mspabi_mpyi")
    2562                    .dwattr $C$DW$211, DW_AT_TI_call
    2563 00007c 12B0          CALL      #__mspabi_mpyi        ; [] |200| 
         00007e 0000!
    2564                                                      ; [] |200| 
    2565 000080 4C0F          MOV.W     r12,r15               ; [] |200| 
    2566 000082 4B0C          MOV.W     r11,r12               ; [] |200| 
    2567 000084 8F0C          SUB.W     r15,r12               ; [] |200| 
    2568 000086 403D          MOV.W     #10,r13               ; [] |200| 
         000088 000A 
    2569            $C$DW$212       .dwtag  DW_TAG_TI_branch
    2570                    .dwattr $C$DW$212, DW_AT_low_pc(0x00)
    2571                    .dwattr $C$DW$212, DW_AT_name("__mspabi_divu")
    2572                    .dwattr $C$DW$212, DW_AT_TI_call
MSP430 Assembler PC v4.2.1 Sat Jan 28 11:33:17 2017

Tools Copyright (c) 2003-2013 Texas Instruments Incorporated
C:\Users\mauricio\AppData\Local\Temp\0876010                         PAGE   56

    2573 00008a 12B0          CALL      #__mspabi_divu        ; [] |200| 
         00008c 0000!
    2574                                                      ; [] |200| 
    2575 00008e 4CC2          MOV.B     r12,&_D+0             ; [] |200| 
         000090 0000!
    2576                    .dwpsn  file "..\CDC.h",line 201,column 2,is_stmt,isa 0
    2577 000092 425C          MOV.B     &_DM+0,r12            ; [] |201| 
         000094 0000!
    2578 000096 403D          MOV.W     #10,r13               ; [] |201| 
         000098 000A 
    2579            $C$DW$213       .dwtag  DW_TAG_TI_branch
    2580                    .dwattr $C$DW$213, DW_AT_low_pc(0x00)
    2581                    .dwattr $C$DW$213, DW_AT_name("__mspabi_mpyi")
    2582                    .dwattr $C$DW$213, DW_AT_TI_call
    2583 00009a 12B0          CALL      #__mspabi_mpyi        ; [] |201| 
         00009c 0000!
    2584                                                      ; [] |201| 
    2585            ;* --------------------------------------------------------------------------*
    2586 00009e 425F          MOV.B     &_UM+0,r15            ; [] |201| 
         0000a0 0000!
    2587 0000a2 5F0C          ADD.W     r15,r12               ; [] |201| 
    2588 0000a4 403D          MOV.W     #10,r13               ; [] |201| 
         0000a6 000A 
    2589            $C$DW$214       .dwtag  DW_TAG_TI_branch
    2590                    .dwattr $C$DW$214, DW_AT_low_pc(0x00)
    2591                    .dwattr $C$DW$214, DW_AT_name("__mspabi_mpyi")
    2592                    .dwattr $C$DW$214, DW_AT_TI_call
    2593 0000a8 12B0          CALL      #__mspabi_mpyi        ; [] |201| 
         0000aa 0000!
    2594                                                      ; [] |201| 
    2595 0000ac 425F          MOV.B     &_C+0,r15             ; [] |201| 
         0000ae 0000!
    2596 0000b0 5F0C          ADD.W     r15,r12               ; [] |201| 
    2597 0000b2 403D          MOV.W     #10,r13               ; [] |201| 
         0000b4 000A 
    2598            $C$DW$215       .dwtag  DW_TAG_TI_branch
    2599                    .dwattr $C$DW$215, DW_AT_low_pc(0x00)
    2600                    .dwattr $C$DW$215, DW_AT_name("__mspabi_mpyi")
    2601                    .dwattr $C$DW$215, DW_AT_TI_call
    2602 0000b6 12B0          CALL      #__mspabi_mpyi        ; [] |201| 
         0000b8 0000!
    2603                                                      ; [] |201| 
    2604 0000ba 425F          MOV.B     &_D+0,r15             ; [] |201| 
         0000bc 0000!
    2605 0000be 5F0C          ADD.W     r15,r12               ; [] |201| 
    2606 0000c0 403D          MOV.W     #10,r13               ; [] |201| 
         0000c2 000A 
    2607            $C$DW$216       .dwtag  DW_TAG_TI_branch
    2608                    .dwattr $C$DW$216, DW_AT_low_pc(0x00)
    2609                    .dwattr $C$DW$216, DW_AT_name("__mspabi_mpyi")
    2610                    .dwattr $C$DW$216, DW_AT_TI_call
    2611 0000c4 12B0          CALL      #__mspabi_mpyi        ; [] |201| 
         0000c6 0000!
    2612                                                      ; [] |201| 
    2613 0000c8 8C4B          SUB.B     r12,r11               ; [] |201| 
MSP430 Assembler PC v4.2.1 Sat Jan 28 11:33:17 2017

Tools Copyright (c) 2003-2013 Texas Instruments Incorporated
C:\Users\mauricio\AppData\Local\Temp\0876010                         PAGE   57

    2614 0000ca 4BC2          MOV.B     r11,&_U+0             ; [] |201| 
         0000cc 0000!
    2615                    .dwpsn  file "..\CDC.h",line 203,column 2,is_stmt,isa 0
    2616 0000ce 403F          MOV.W     #48,r15               ; [] |203| 
         0000d0 0030 
    2617 0000d2 525F          ADD.B     &_DM+0,r15            ; [] |203| 
         0000d4 0000!
    2618 0000d6 4FC2          MOV.B     r15,&aux_char+1       ; [] |203| 
         0000d8 0001!
    2619                    .dwpsn  file "..\CDC.h",line 204,column 2,is_stmt,isa 0
    2620 0000da 403F          MOV.W     #48,r15               ; [] |204| 
         0000dc 0030 
    2621 0000de 525F          ADD.B     &_UM+0,r15            ; [] |204| 
         0000e0 0000!
    2622 0000e2 4FC2          MOV.B     r15,&aux_char+2       ; [] |204| 
         0000e4 0002!
    2623                    .dwpsn  file "..\CDC.h",line 205,column 2,is_stmt,isa 0
    2624 0000e6 403F          MOV.W     #48,r15               ; [] |205| 
         0000e8 0030 
    2625 0000ea 525F          ADD.B     &_C+0,r15             ; [] |205| 
         0000ec 0000!
    2626 0000ee 4FC2          MOV.B     r15,&aux_char+3       ; [] |205| 
         0000f0 0003!
    2627                    .dwpsn  file "..\CDC.h",line 206,column 2,is_stmt,isa 0
    2628 0000f2 403F          MOV.W     #48,r15               ; [] |206| 
         0000f4 0030 
    2629 0000f6 525F          ADD.B     &_D+0,r15             ; [] |206| 
         0000f8 0000!
    2630 0000fa 4FC2          MOV.B     r15,&aux_char+4       ; [] |206| 
         0000fc 0004!
    2631                    .dwpsn  file "..\CDC.h",line 207,column 2,is_stmt,isa 0
    2632 0000fe 403F          MOV.W     #48,r15               ; [] |207| 
         000100 0030 
    2633 000102 525F          ADD.B     &_U+0,r15             ; [] |207| 
         000104 0000!
    2634 000106 4FC2          MOV.B     r15,&aux_char+5       ; [] |207| 
         000108 0005!
    2635                    .dwpsn  file "..\CDC.h",line 208,column 2,is_stmt,isa 0
    2636 00010a 40F2          MOV.B     #48,&aux_char+0       ; [] |208| 
         00010c 0030 
         00010e 0000!
    2637                    .dwpsn  file "..\CDC.h",line 209,column 2,is_stmt,isa 0
    2638 000110 403C          MOV.W     #aux_char+0,r12       ; [] |209| 
         000112 0000!
    2639            $C$DW$217       .dwtag  DW_TAG_TI_branch
    2640                    .dwattr $C$DW$217, DW_AT_low_pc(0x00)
    2641                    .dwattr $C$DW$217, DW_AT_name("ec")
    2642                    .dwattr $C$DW$217, DW_AT_TI_call
    2643 000114 12B0          CALL      #ec                   ; [] |209| 
         000116 0000!
    2644                                                      ; [] |209| 
    2645                    .dwpsn  file "..\CDC.h",line 210,column 1,is_stmt,isa 0
    2646            $C$DW$218       .dwtag  DW_TAG_TI_branch
    2647                    .dwattr $C$DW$218, DW_AT_low_pc(0x00)
    2648                    .dwattr $C$DW$218, DW_AT_TI_return
MSP430 Assembler PC v4.2.1 Sat Jan 28 11:33:17 2017

Tools Copyright (c) 2003-2013 Texas Instruments Incorporated
C:\Users\mauricio\AppData\Local\Temp\0876010                         PAGE   58

    2649 000118 4130          RET       ; [] 
    2650                    ; [] 
    2651                    .dwattr $C$DW$200, DW_AT_TI_end_file("..\CDC.h")
    2652                    .dwattr $C$DW$200, DW_AT_TI_end_line(0xd2)
    2653                    .dwattr $C$DW$200, DW_AT_TI_end_column(0x01)
    2654                    .dwendentry
    2655                    .dwendtag $C$DW$200
    2656            
    2657 000000               .sect   ".text:printfloat"
    2658                    .align  2
    2659                    .clink
    2660                    .global printfloat
    2661            
    2662            $C$DW$219       .dwtag  DW_TAG_subprogram, DW_AT_name("printfloat")
    2663                    .dwattr $C$DW$219, DW_AT_low_pc(printfloat)
    2664                    .dwattr $C$DW$219, DW_AT_high_pc(0x00)
    2665                    .dwattr $C$DW$219, DW_AT_TI_symbol_name("printfloat")
    2666                    .dwattr $C$DW$219, DW_AT_external
    2667                    .dwattr $C$DW$219, DW_AT_TI_begin_file("..\CDC.h")
    2668                    .dwattr $C$DW$219, DW_AT_TI_begin_line(0xd4)
    2669                    .dwattr $C$DW$219, DW_AT_TI_begin_column(0x06)
    2670                    .dwattr $C$DW$219, DW_AT_decl_file("..\CDC.h")
    2671                    .dwattr $C$DW$219, DW_AT_decl_line(0xd4)
    2672                    .dwattr $C$DW$219, DW_AT_decl_column(0x06)
    2673                    .dwattr $C$DW$219, DW_AT_TI_max_frame_size(0x06)
    2674                    .dwpsn  file "..\CDC.h",line 213,column 1,is_stmt,address printfloat,isa 0
    2675            
    2676                    .dwfde $C$DW$CIE, printfloat
    2677            $C$DW$220       .dwtag  DW_TAG_formal_parameter, DW_AT_name("twoto3")
    2678                    .dwattr $C$DW$220, DW_AT_TI_symbol_name("twoto3")
    2679                    .dwattr $C$DW$220, DW_AT_type(*$C$DW$T$16)
    2680                    .dwattr $C$DW$220, DW_AT_location[DW_OP_reg12 DW_OP_piece 2 DW_OP_reg13 DW_OP_piece 2]
    2681            
    2682            ;*****************************************************************************
    2683            ;* FUNCTION NAME: printfloat                                                 *
    2684            ;*                                                                           *
    2685            ;*   Regs Modified     : SP,SR,r9,r10,r11,r12,r13,r14,r15                    *
    2686            ;*   Regs Used         : SP,SR,r9,r10,r11,r12,r13,r14,r15                    *
    2687            ;*   Local Frame Size  : 0 Args + 0 Auto + 4 Save = 4 byte                   *
    2688            ;*****************************************************************************
    2689 000000       printfloat:
    2690            ;* --------------------------------------------------------------------------*
    2691                    .dwcfi  cfa_offset, 2
    2692                    .dwcfi  save_reg_to_mem, 16, -2
    2693 000000 120A          PUSH.W    r10                   ; [] 
    2694                    .dwcfi  cfa_offset, 4
    2695                    .dwcfi  save_reg_to_mem, 10, -4
    2696 000002 1209          PUSH.W    r9                    ; [] 
    2697                    .dwcfi  cfa_offset, 6
    2698                    .dwcfi  save_reg_to_mem, 9, -6
    2699            ;* r9    assigned to twoto3
    2700            $C$DW$221       .dwtag  DW_TAG_variable, DW_AT_name("twoto3")
    2701                    .dwattr $C$DW$221, DW_AT_TI_symbol_name("twoto3")
    2702                    .dwattr $C$DW$221, DW_AT_type(*$C$DW$T$16)
    2703                    .dwattr $C$DW$221, DW_AT_location[DW_OP_reg9 DW_OP_piece 2 DW_OP_reg10 DW_OP_piece 2]
MSP430 Assembler PC v4.2.1 Sat Jan 28 11:33:17 2017

Tools Copyright (c) 2003-2013 Texas Instruments Incorporated
C:\Users\mauricio\AppData\Local\Temp\0876010                         PAGE   59

    2704 000004 4C09          MOV.W     r12,r9                ; [] |213| 
    2705 000006 4D0A          MOV.W     r13,r10               ; [] |213| 
    2706                    .dwpsn  file "..\CDC.h",line 214,column 2,is_stmt,isa 0
    2707            $C$DW$222       .dwtag  DW_TAG_TI_branch
    2708                    .dwattr $C$DW$222, DW_AT_low_pc(0x00)
    2709                    .dwattr $C$DW$222, DW_AT_name("__mspabi_fixfu")
    2710                    .dwattr $C$DW$222, DW_AT_TI_call
    2711 000008 12B0          CALL      #__mspabi_fixfu       ; [] |214| 
         00000a 0000!
    2712                                                      ; [] |214| 
    2713 00000c 4CC2          MOV.B     r12,&_UM+0            ; [] |214| 
         00000e 0000!
    2714                    .dwpsn  file "..\CDC.h",line 215,column 2,is_stmt,isa 0
    2715 000010 425C          MOV.B     &_UM+0,r12            ; [] |215| 
         000012 0000!
    2716            $C$DW$223       .dwtag  DW_TAG_TI_branch
    2717                    .dwattr $C$DW$223, DW_AT_low_pc(0x00)
    2718                    .dwattr $C$DW$223, DW_AT_name("__mspabi_fltuf")
    2719                    .dwattr $C$DW$223, DW_AT_TI_call
    2720 000014 12B0          CALL      #__mspabi_fltuf       ; [] |215| 
         000016 0000!
    2721                                                      ; [] |215| 
    2722 000018 4C0E          MOV.W     r12,r14               ; [] |215| 
    2723 00001a 4D0F          MOV.W     r13,r15               ; [] |215| 
    2724 00001c 490C          MOV.W     r9,r12                ; [] |215| 
    2725 00001e 4A0D          MOV.W     r10,r13               ; [] |215| 
    2726            $C$DW$224       .dwtag  DW_TAG_TI_branch
    2727                    .dwattr $C$DW$224, DW_AT_low_pc(0x00)
    2728                    .dwattr $C$DW$224, DW_AT_name("__mspabi_subf")
    2729                    .dwattr $C$DW$224, DW_AT_TI_call
    2730 000020 12B0          CALL      #__mspabi_subf        ; [] |215| 
         000022 0000!
    2731                                                      ; [] |215| 
    2732 000024 430E          MOV.W     #0,r14                ; [] |215| 
    2733 000026 403F          MOV.W     #17096,r15            ; [] |215| 
         000028 42C8 
    2734            $C$DW$225       .dwtag  DW_TAG_TI_branch
    2735                    .dwattr $C$DW$225, DW_AT_low_pc(0x00)
    2736                    .dwattr $C$DW$225, DW_AT_name("__mspabi_mpyf")
    2737                    .dwattr $C$DW$225, DW_AT_TI_call
    2738 00002a 12B0          CALL      #__mspabi_mpyf        ; [] |215| 
         00002c 0000!
    2739                                                      ; [] |215| 
    2740            $C$DW$226       .dwtag  DW_TAG_TI_branch
    2741                    .dwattr $C$DW$226, DW_AT_low_pc(0x00)
    2742                    .dwattr $C$DW$226, DW_AT_name("__mspabi_fixfu")
    2743                    .dwattr $C$DW$226, DW_AT_TI_call
    2744 00002e 12B0          CALL      #__mspabi_fixfu       ; [] |215| 
         000030 0000!
    2745                                                      ; [] |215| 
    2746 000032 4CC2          MOV.B     r12,&_UD+0            ; [] |215| 
         000034 0000!
    2747                    .dwpsn  file "..\CDC.h",line 216,column 2,is_stmt,isa 0
    2748 000036 425C          MOV.B     &_UM+0,r12            ; [] |216| 
         000038 0000!
MSP430 Assembler PC v4.2.1 Sat Jan 28 11:33:17 2017

Tools Copyright (c) 2003-2013 Texas Instruments Incorporated
C:\Users\mauricio\AppData\Local\Temp\0876010                         PAGE   60

    2749 00003a 403D          MOV.W     #100,r13              ; [] |216| 
         00003c 0064 
    2750            $C$DW$227       .dwtag  DW_TAG_TI_branch
    2751                    .dwattr $C$DW$227, DW_AT_low_pc(0x00)
    2752                    .dwattr $C$DW$227, DW_AT_name("__mspabi_divi")
    2753                    .dwattr $C$DW$227, DW_AT_TI_call
    2754 00003e 12B0          CALL      #__mspabi_divi        ; [] |216| 
         000040 0000!
    2755                                                      ; [] |216| 
    2756 000042 4CC2          MOV.B     r12,&_C+0             ; [] |216| 
         000044 0000!
    2757                    .dwpsn  file "..\CDC.h",line 217,column 2,is_stmt,isa 0
    2758 000046 425C          MOV.B     &_C+0,r12             ; [] |217| 
         000048 0000!
    2759 00004a 403D          MOV.W     #100,r13              ; [] |217| 
         00004c 0064 
    2760            $C$DW$228       .dwtag  DW_TAG_TI_branch
    2761                    .dwattr $C$DW$228, DW_AT_low_pc(0x00)
    2762                    .dwattr $C$DW$228, DW_AT_name("__mspabi_mpyi")
    2763                    .dwattr $C$DW$228, DW_AT_TI_call
    2764 00004e 12B0          CALL      #__mspabi_mpyi        ; [] |217| 
         000050 0000!
    2765                                                      ; [] |217| 
    2766 000052 4C0F          MOV.W     r12,r15               ; [] |217| 
    2767 000054 425C          MOV.B     &_UM+0,r12            ; [] |217| 
         000056 0000!
    2768 000058 8F0C          SUB.W     r15,r12               ; [] |217| 
    2769 00005a 403D          MOV.W     #10,r13               ; [] |217| 
         00005c 000A 
    2770            $C$DW$229       .dwtag  DW_TAG_TI_branch
    2771                    .dwattr $C$DW$229, DW_AT_low_pc(0x00)
    2772                    .dwattr $C$DW$229, DW_AT_name("__mspabi_divi")
    2773                    .dwattr $C$DW$229, DW_AT_TI_call
    2774 00005e 12B0          CALL      #__mspabi_divi        ; [] |217| 
         000060 0000!
    2775                                                      ; [] |217| 
    2776 000062 4CC2          MOV.B     r12,&_D+0             ; [] |217| 
         000064 0000!
    2777                    .dwpsn  file "..\CDC.h",line 218,column 2,is_stmt,isa 0
    2778 000066 425C          MOV.B     &_C+0,r12             ; [] |218| 
         000068 0000!
    2779 00006a 403D          MOV.W     #10,r13               ; [] |218| 
         00006c 000A 
    2780            $C$DW$230       .dwtag  DW_TAG_TI_branch
    2781                    .dwattr $C$DW$230, DW_AT_low_pc(0x00)
    2782                    .dwattr $C$DW$230, DW_AT_name("__mspabi_mpyi")
    2783                    .dwattr $C$DW$230, DW_AT_TI_call
    2784 00006e 12B0          CALL      #__mspabi_mpyi        ; [] |218| 
         000070 0000!
    2785                                                      ; [] |218| 
    2786 000072 425F          MOV.B     &_D+0,r15             ; [] |218| 
         000074 0000!
    2787 000076 5F0C          ADD.W     r15,r12               ; [] |218| 
    2788 000078 403D          MOV.W     #10,r13               ; [] |218| 
         00007a 000A 
MSP430 Assembler PC v4.2.1 Sat Jan 28 11:33:17 2017

Tools Copyright (c) 2003-2013 Texas Instruments Incorporated
C:\Users\mauricio\AppData\Local\Temp\0876010                         PAGE   61

    2789            $C$DW$231       .dwtag  DW_TAG_TI_branch
    2790                    .dwattr $C$DW$231, DW_AT_low_pc(0x00)
    2791                    .dwattr $C$DW$231, DW_AT_name("__mspabi_mpyi")
    2792                    .dwattr $C$DW$231, DW_AT_TI_call
    2793 00007c 12B0          CALL      #__mspabi_mpyi        ; [] |218| 
         00007e 0000!
    2794                                                      ; [] |218| 
    2795 000080 425F          MOV.B     &_UM+0,r15            ; [] |218| 
         000082 0000!
    2796 000084 8C4F          SUB.B     r12,r15               ; [] |218| 
    2797 000086 4FC2          MOV.B     r15,&_U+0             ; [] |218| 
         000088 0000!
    2798                    .dwpsn  file "..\CDC.h",line 219,column 2,is_stmt,isa 0
    2799 00008a 403F          MOV.W     #48,r15               ; [] |219| 
         00008c 0030 
    2800 00008e 525F          ADD.B     &_C+0,r15             ; [] |219| 
         000090 0000!
    2801 000092 4FC2          MOV.B     r15,&aux_char+0       ; [] |219| 
         000094 0000!
    2802                    .dwpsn  file "..\CDC.h",line 220,column 2,is_stmt,isa 0
    2803 000096 403F          MOV.W     #48,r15               ; [] |220| 
         000098 0030 
    2804 00009a 525F          ADD.B     &_D+0,r15             ; [] |220| 
         00009c 0000!
    2805 00009e 4FC2          MOV.B     r15,&aux_char+1       ; [] |220| 
         0000a0 0001!
    2806                    .dwpsn  file "..\CDC.h",line 221,column 2,is_stmt,isa 0
    2807 0000a2 403F          MOV.W     #48,r15               ; [] |221| 
         0000a4 0030 
    2808 0000a6 525F          ADD.B     &_U+0,r15             ; [] |221| 
         0000a8 0000!
    2809 0000aa 4FC2          MOV.B     r15,&aux_char+2       ; [] |221| 
         0000ac 0002!
    2810                    .dwpsn  file "..\CDC.h",line 222,column 2,is_stmt,isa 0
    2811 0000ae 425C          MOV.B     &_UD+0,r12            ; [] |222| 
         0000b0 0000!
    2812 0000b2 403D          MOV.W     #10,r13               ; [] |222| 
         0000b4 000A 
    2813            $C$DW$232       .dwtag  DW_TAG_TI_branch
    2814                    .dwattr $C$DW$232, DW_AT_low_pc(0x00)
    2815                    .dwattr $C$DW$232, DW_AT_name("__mspabi_divi")
    2816                    .dwattr $C$DW$232, DW_AT_TI_call
    2817 0000b6 12B0          CALL      #__mspabi_divi        ; [] |222| 
         0000b8 0000!
    2818                                                      ; [] |222| 
    2819            ;* --------------------------------------------------------------------------*
    2820 0000ba 4CC2          MOV.B     r12,&_D+0             ; [] |222| 
         0000bc 0000!
    2821                    .dwpsn  file "..\CDC.h",line 223,column 2,is_stmt,isa 0
    2822 0000be 425C          MOV.B     &_D+0,r12             ; [] |223| 
         0000c0 0000!
    2823 0000c2 403D          MOV.W     #10,r13               ; [] |223| 
         0000c4 000A 
    2824            $C$DW$233       .dwtag  DW_TAG_TI_branch
    2825                    .dwattr $C$DW$233, DW_AT_low_pc(0x00)
MSP430 Assembler PC v4.2.1 Sat Jan 28 11:33:17 2017

Tools Copyright (c) 2003-2013 Texas Instruments Incorporated
C:\Users\mauricio\AppData\Local\Temp\0876010                         PAGE   62

    2826                    .dwattr $C$DW$233, DW_AT_name("__mspabi_mpyi")
    2827                    .dwattr $C$DW$233, DW_AT_TI_call
    2828 0000c6 12B0          CALL      #__mspabi_mpyi        ; [] |223| 
         0000c8 0000!
    2829                                                      ; [] |223| 
    2830 0000ca 425F          MOV.B     &_UD+0,r15            ; [] |223| 
         0000cc 0000!
    2831 0000ce 8C4F          SUB.B     r12,r15               ; [] |223| 
    2832 0000d0 4FC2          MOV.B     r15,&_U+0             ; [] |223| 
         0000d2 0000!
    2833                    .dwpsn  file "..\CDC.h",line 224,column 2,is_stmt,isa 0
    2834 0000d4 40F2          MOV.B     #46,&aux_char+3       ; [] |224| 
         0000d6 002E 
         0000d8 0003!
    2835                    .dwpsn  file "..\CDC.h",line 225,column 2,is_stmt,isa 0
    2836 0000da 403F          MOV.W     #48,r15               ; [] |225| 
         0000dc 0030 
    2837 0000de 525F          ADD.B     &_D+0,r15             ; [] |225| 
         0000e0 0000!
    2838 0000e2 4FC2          MOV.B     r15,&aux_char+4       ; [] |225| 
         0000e4 0004!
    2839                    .dwpsn  file "..\CDC.h",line 226,column 2,is_stmt,isa 0
    2840 0000e6 403F          MOV.W     #48,r15               ; [] |226| 
         0000e8 0030 
    2841 0000ea 525F          ADD.B     &_U+0,r15             ; [] |226| 
         0000ec 0000!
    2842 0000ee 4FC2          MOV.B     r15,&aux_char+5       ; [] |226| 
         0000f0 0005!
    2843                    .dwpsn  file "..\CDC.h",line 227,column 2,is_stmt,isa 0
    2844 0000f2 403C          MOV.W     #aux_char+0,r12       ; [] |227| 
         0000f4 0000!
    2845            $C$DW$234       .dwtag  DW_TAG_TI_branch
    2846                    .dwattr $C$DW$234, DW_AT_low_pc(0x00)
    2847                    .dwattr $C$DW$234, DW_AT_name("ec")
    2848                    .dwattr $C$DW$234, DW_AT_TI_call
    2849 0000f6 12B0          CALL      #ec                   ; [] |227| 
         0000f8 0000!
    2850                                                      ; [] |227| 
    2851                    .dwpsn  file "..\CDC.h",line 228,column 1,is_stmt,isa 0
    2852 0000fa 4030          BR        #__mspabi_func_epilog_2+0 ; [] 
         0000fc 0000!
    2853                                                      ; [] 
    2854                    .dwattr $C$DW$219, DW_AT_TI_end_file("..\CDC.h")
    2855                    .dwattr $C$DW$219, DW_AT_TI_end_line(0xe4)
    2856                    .dwattr $C$DW$219, DW_AT_TI_end_column(0x01)
    2857                    .dwendentry
    2858                    .dwendtag $C$DW$219
    2859            
    2860 000000               .sect   ".text:timer0"
    2861                    .align  2
    2862                    .clink
    2863                    .global timer0
    2864            
    2865            $C$DW$235       .dwtag  DW_TAG_subprogram, DW_AT_name("timer0")
    2866                    .dwattr $C$DW$235, DW_AT_low_pc(timer0)
MSP430 Assembler PC v4.2.1 Sat Jan 28 11:33:17 2017

Tools Copyright (c) 2003-2013 Texas Instruments Incorporated
C:\Users\mauricio\AppData\Local\Temp\0876010                         PAGE   63

    2867                    .dwattr $C$DW$235, DW_AT_high_pc(0x00)
    2868                    .dwattr $C$DW$235, DW_AT_TI_symbol_name("timer0")
    2869                    .dwattr $C$DW$235, DW_AT_external
    2870                    .dwattr $C$DW$235, DW_AT_TI_begin_file("..\FBF.h")
    2871                    .dwattr $C$DW$235, DW_AT_TI_begin_line(0x0d)
    2872                    .dwattr $C$DW$235, DW_AT_TI_begin_column(0x07)
    2873                    .dwattr $C$DW$235, DW_AT_decl_file("..\FBF.h")
    2874                    .dwattr $C$DW$235, DW_AT_decl_line(0x0d)
    2875                    .dwattr $C$DW$235, DW_AT_decl_column(0x07)
    2876                    .dwattr $C$DW$235, DW_AT_TI_max_frame_size(0x02)
    2877                    .dwpsn  file "..\FBF.h",line 14,column 2,is_stmt,address timer0,isa 0
    2878            
    2879                    .dwfde $C$DW$CIE, timer0
    2880            
    2881            ;*****************************************************************************
    2882            ;* FUNCTION NAME: timer0                                                     *
    2883            ;*                                                                           *
    2884            ;*   Regs Modified     : SP                                                  *
    2885            ;*   Regs Used         : SP                                                  *
    2886            ;*   Local Frame Size  : 0 Args + 0 Auto + 0 Save = 0 byte                   *
    2887            ;*****************************************************************************
    2888 000000       timer0:
    2889            ;* --------------------------------------------------------------------------*
    2890                    .dwcfi  cfa_offset, 2
    2891                    .dwcfi  save_reg_to_mem, 16, -2
    2892                    .dwpsn  file "..\FBF.h",line 15,column 3,is_stmt,isa 0
    2893 000000 40B2          MOV.W     #8000,&TA0CCR0+0      ; [] |15| 
         000002 1F40 
         000004 0000!
    2894                    .dwpsn  file "..\FBF.h",line 16,column 3,is_stmt,isa 0
    2895 000006 40B2          MOV.W     #16,&TA0CCTL0+0       ; [] |16| 
         000008 0010 
         00000a 0000!
    2896                    .dwpsn  file "..\FBF.h",line 17,column 3,is_stmt,isa 0
    2897 00000c 40B2          MOV.W     #530,&TA0CTL+0        ; [] |17| 
         00000e 0212 
         000010 0000!
    2898                    .dwpsn  file "..\FBF.h",line 18,column 2,is_stmt,isa 0
    2899            $C$DW$236       .dwtag  DW_TAG_TI_branch
    2900                    .dwattr $C$DW$236, DW_AT_low_pc(0x00)
    2901                    .dwattr $C$DW$236, DW_AT_TI_return
    2902 000012 4130          RET       ; [] 
    2903                    ; [] 
    2904                    .dwattr $C$DW$235, DW_AT_TI_end_file("..\FBF.h")
    2905                    .dwattr $C$DW$235, DW_AT_TI_end_line(0x12)
    2906                    .dwattr $C$DW$235, DW_AT_TI_end_column(0x02)
    2907                    .dwendentry
    2908                    .dwendtag $C$DW$235
    2909            
    2910 000000               .sect   ".text:canal"
    2911                    .align  2
    2912                    .clink
    2913                    .global canal
    2914            
    2915            $C$DW$237       .dwtag  DW_TAG_subprogram, DW_AT_name("canal")
MSP430 Assembler PC v4.2.1 Sat Jan 28 11:33:17 2017

Tools Copyright (c) 2003-2013 Texas Instruments Incorporated
C:\Users\mauricio\AppData\Local\Temp\0876010                         PAGE   64

    2916                    .dwattr $C$DW$237, DW_AT_low_pc(canal)
    2917                    .dwattr $C$DW$237, DW_AT_high_pc(0x00)
    2918                    .dwattr $C$DW$237, DW_AT_TI_symbol_name("canal")
    2919                    .dwattr $C$DW$237, DW_AT_external
    2920                    .dwattr $C$DW$237, DW_AT_TI_begin_file("..\FBF.h")
    2921                    .dwattr $C$DW$237, DW_AT_TI_begin_line(0x15)
    2922                    .dwattr $C$DW$237, DW_AT_TI_begin_column(0x07)
    2923                    .dwattr $C$DW$237, DW_AT_decl_file("..\FBF.h")
    2924                    .dwattr $C$DW$237, DW_AT_decl_line(0x15)
    2925                    .dwattr $C$DW$237, DW_AT_decl_column(0x07)
    2926                    .dwattr $C$DW$237, DW_AT_TI_max_frame_size(0x02)
    2927                    .dwpsn  file "..\FBF.h",line 22,column 2,is_stmt,address canal,isa 0
    2928            
    2929                    .dwfde $C$DW$CIE, canal
    2930            $C$DW$238       .dwtag  DW_TAG_formal_parameter, DW_AT_name("soyuncanal")
    2931                    .dwattr $C$DW$238, DW_AT_TI_symbol_name("soyuncanal")
    2932                    .dwattr $C$DW$238, DW_AT_type(*$C$DW$T$11)
    2933                    .dwattr $C$DW$238, DW_AT_location[DW_OP_reg12]
    2934            
    2935            ;*****************************************************************************
    2936            ;* FUNCTION NAME: canal                                                      *
    2937            ;*                                                                           *
    2938            ;*   Regs Modified     : SP,SR,r12,r15                                       *
    2939            ;*   Regs Used         : SP,SR,r12,r15                                       *
    2940            ;*   Local Frame Size  : 0 Args + 0 Auto + 0 Save = 0 byte                   *
    2941            ;*****************************************************************************
    2942 000000       canal:
    2943            ;* --------------------------------------------------------------------------*
    2944                    .dwcfi  cfa_offset, 2
    2945                    .dwcfi  save_reg_to_mem, 16, -2
    2946            ;* r15   assigned to ADCBITEN
    2947            $C$DW$239       .dwtag  DW_TAG_variable, DW_AT_name("ADCBITEN")
    2948                    .dwattr $C$DW$239, DW_AT_TI_symbol_name("ADCBITEN")
    2949                    .dwattr $C$DW$239, DW_AT_type(*$C$DW$T$6)
    2950                    .dwattr $C$DW$239, DW_AT_location[DW_OP_reg15]
    2951                    .dwpsn  file "..\FBF.h",line 24,column 3,is_stmt,isa 0
    2952 000000 F0B2          AND.W     #65517,&ADC10CTL0+0   ; [] |24| 
         000002 FFED 
         000004 0000!
    2953                    .dwpsn  file "..\FBF.h",line 25,column 3,is_stmt,isa 0
    2954 000006 923C          CMP.W     #8,r12                ; [] |25| 
    2955 000008 2C0C          JHS       $C$L19                ; [] |25| 
    2956                                                      ; [] |25| 
    2957            ;* --------------------------------------------------------------------------*
    2958 00000a 4C0F          MOV.W     r12,r15               ; [] |25| 
    2959 00000c 5F0F          RLA.W     r15                   ; [] |25| 
    2960 00000e 4F10          BR        $C$SW1+0(r15)         ; [] |25| 
         000010 0000!
    2961                                                      ; [] |25| 
    2962                    .clink
    2963 000012 0000! $C$SW1: .word   $C$L27  ; 0
    2964 000014 0000!         .word   $C$L26  ; 1
    2965 000016 0000!         .word   $C$L25  ; 2
    2966 000018 0000!         .word   $C$L24  ; 3
    2967 00001a 0000!         .word   $C$L23  ; 4
MSP430 Assembler PC v4.2.1 Sat Jan 28 11:33:17 2017

Tools Copyright (c) 2003-2013 Texas Instruments Incorporated
C:\Users\mauricio\AppData\Local\Temp\0876010                         PAGE   65

    2968 00001c 0000!         .word   $C$L22  ; 5
    2969 00001e 0000!         .word   $C$L21  ; 6
    2970 000020 0000!         .word   $C$L20  ; 7
    2971 000022               .sect   ".text:canal"
    2972            ;* --------------------------------------------------------------------------*
    2973 000022       $C$L19:    
    2974                    .dwpsn  file "..\FBF.h",line 37,column 14,is_stmt,isa 0
    2975 000022 434F          MOV.B     #0,r15                ; [] |37| 
    2976                    .dwpsn  file "..\FBF.h",line 37,column 30,is_stmt,isa 0
    2977 000024 3C13          JMP       $C$L28                ; [] |37| 
    2978                                                      ; [] |37| 
    2979            ;* --------------------------------------------------------------------------*
    2980 000026       $C$L20:    
    2981                    .dwpsn  file "..\FBF.h",line 35,column 11,is_stmt,isa 0
    2982 000026 407F          MOV.B     #128,r15              ; [] |35| 
         000028 0080 
    2983                    .dwpsn  file "..\FBF.h",line 35,column 25,is_stmt,isa 0
    2984 00002a 3C10          JMP       $C$L28                ; [] |35| 
    2985                                                      ; [] |35| 
    2986            ;* --------------------------------------------------------------------------*
    2987 00002c       $C$L21:    
    2988                    .dwpsn  file "..\FBF.h",line 34,column 11,is_stmt,isa 0
    2989 00002c 407F          MOV.B     #64,r15               ; [] |34| 
         00002e 0040 
    2990                    .dwpsn  file "..\FBF.h",line 34,column 25,is_stmt,isa 0
    2991 000030 3C0D          JMP       $C$L28                ; [] |34| 
    2992                                                      ; [] |34| 
    2993            ;* --------------------------------------------------------------------------*
    2994 000032       $C$L22:    
    2995                    .dwpsn  file "..\FBF.h",line 33,column 11,is_stmt,isa 0
    2996 000032 407F          MOV.B     #32,r15               ; [] |33| 
         000034 0020 
    2997                    .dwpsn  file "..\FBF.h",line 33,column 25,is_stmt,isa 0
    2998 000036 3C0A          JMP       $C$L28                ; [] |33| 
    2999                                                      ; [] |33| 
    3000            ;* --------------------------------------------------------------------------*
    3001 000038       $C$L23:    
    3002                    .dwpsn  file "..\FBF.h",line 32,column 11,is_stmt,isa 0
    3003 000038 407F          MOV.B     #16,r15               ; [] |32| 
         00003a 0010 
    3004                    .dwpsn  file "..\FBF.h",line 32,column 25,is_stmt,isa 0
    3005 00003c 3C07          JMP       $C$L28                ; [] |32| 
    3006                                                      ; [] |32| 
    3007            ;* --------------------------------------------------------------------------*
    3008 00003e       $C$L24:    
    3009                    .dwpsn  file "..\FBF.h",line 31,column 11,is_stmt,isa 0
    3010 00003e 427F          MOV.B     #8,r15                ; [] |31| 
    3011                    .dwpsn  file "..\FBF.h",line 31,column 25,is_stmt,isa 0
    3012 000040 3C05          JMP       $C$L28                ; [] |31| 
    3013                                                      ; [] |31| 
    3014            ;* --------------------------------------------------------------------------*
    3015 000042       $C$L25:    
    3016                    .dwpsn  file "..\FBF.h",line 30,column 11,is_stmt,isa 0
    3017 000042 426F          MOV.B     #4,r15                ; [] |30| 
    3018                    .dwpsn  file "..\FBF.h",line 30,column 25,is_stmt,isa 0
MSP430 Assembler PC v4.2.1 Sat Jan 28 11:33:17 2017

Tools Copyright (c) 2003-2013 Texas Instruments Incorporated
C:\Users\mauricio\AppData\Local\Temp\0876010                         PAGE   66

    3019 000044 3C03          JMP       $C$L28                ; [] |30| 
    3020                                                      ; [] |30| 
    3021            ;* --------------------------------------------------------------------------*
    3022 000046       $C$L26:    
    3023                    .dwpsn  file "..\FBF.h",line 29,column 11,is_stmt,isa 0
    3024 000046 436F          MOV.B     #2,r15                ; [] |29| 
    3025                    .dwpsn  file "..\FBF.h",line 29,column 25,is_stmt,isa 0
    3026 000048 3C01          JMP       $C$L28                ; [] |29| 
    3027                                                      ; [] |29| 
    3028            ;* --------------------------------------------------------------------------*
    3029 00004a       $C$L27:    
    3030                    .dwpsn  file "..\FBF.h",line 28,column 12,is_stmt,isa 0
    3031 00004a 435F          MOV.B     #1,r15                ; [] |28| 
    3032            ;* --------------------------------------------------------------------------*
    3033 00004c       $C$L28:    
    3034                    .dwpsn  file "..\FBF.h",line 39,column 3,is_stmt,isa 0
    3035            $C$DW$240       .dwtag  DW_TAG_TI_branch
    3036                    .dwattr $C$DW$240, DW_AT_low_pc(0x00)
    3037                    .dwattr $C$DW$240, DW_AT_name("__mspabi_slli_12")
    3038                    .dwattr $C$DW$240, DW_AT_TI_call
    3039 00004c 12B0          CALL      #__mspabi_slli_12     ; [] |39| 
         00004e 0000!
    3040                                                      ; [] |39| 
    3041 000050 D03C          OR.W      #16,r12               ; [] |39| 
         000052 0010 
    3042 000054 4C82          MOV.W     r12,&ADC10CTL1+0      ; [] |39| 
         000056 0000!
    3043                    .dwpsn  file "..\FBF.h",line 40,column 3,is_stmt,isa 0
    3044 000058 40B2          MOV.W     #24,&ADC10CTL0+0      ; [] |40| 
         00005a 0018 
         00005c 0000!
    3045                    .dwpsn  file "..\FBF.h",line 41,column 3,is_stmt,isa 0
    3046 00005e 4FC2          MOV.B     r15,&ADC10AE0+0       ; [] |41| 
         000060 0000!
    3047                    .dwpsn  file "..\FBF.h",line 42,column 2,is_stmt,isa 0
    3048            $C$DW$241       .dwtag  DW_TAG_TI_branch
    3049                    .dwattr $C$DW$241, DW_AT_low_pc(0x00)
    3050                    .dwattr $C$DW$241, DW_AT_TI_return
    3051 000062 4130          RET       ; [] 
    3052                    ; [] 
    3053                    .dwattr $C$DW$237, DW_AT_TI_end_file("..\FBF.h")
    3054                    .dwattr $C$DW$237, DW_AT_TI_end_line(0x2a)
    3055                    .dwattr $C$DW$237, DW_AT_TI_end_column(0x02)
    3056                    .dwendentry
    3057                    .dwendtag $C$DW$237
    3058            
    3059 000000               .sect   ".text:Adc"
    3060                    .align  2
    3061                    .clink
    3062                    .global Adc
    3063            
    3064            $C$DW$242       .dwtag  DW_TAG_subprogram, DW_AT_name("Adc")
    3065                    .dwattr $C$DW$242, DW_AT_low_pc(Adc)
    3066                    .dwattr $C$DW$242, DW_AT_high_pc(0x00)
    3067                    .dwattr $C$DW$242, DW_AT_TI_symbol_name("Adc")
MSP430 Assembler PC v4.2.1 Sat Jan 28 11:33:17 2017

Tools Copyright (c) 2003-2013 Texas Instruments Incorporated
C:\Users\mauricio\AppData\Local\Temp\0876010                         PAGE   67

    3068                    .dwattr $C$DW$242, DW_AT_external
    3069                    .dwattr $C$DW$242, DW_AT_TI_begin_file("..\FBF.h")
    3070                    .dwattr $C$DW$242, DW_AT_TI_begin_line(0x2d)
    3071                    .dwattr $C$DW$242, DW_AT_TI_begin_column(0x07)
    3072                    .dwattr $C$DW$242, DW_AT_decl_file("..\FBF.h")
    3073                    .dwattr $C$DW$242, DW_AT_decl_line(0x2d)
    3074                    .dwattr $C$DW$242, DW_AT_decl_column(0x07)
    3075                    .dwattr $C$DW$242, DW_AT_TI_max_frame_size(0x02)
    3076                    .dwpsn  file "..\FBF.h",line 46,column 2,is_stmt,address Adc,isa 0
    3077            
    3078                    .dwfde $C$DW$CIE, Adc
    3079            
    3080            ;*****************************************************************************
    3081            ;* FUNCTION NAME: Adc                                                        *
    3082            ;*                                                                           *
    3083            ;*   Regs Modified     : SP                                                  *
    3084            ;*   Regs Used         : SP                                                  *
    3085            ;*   Local Frame Size  : 0 Args + 0 Auto + 0 Save = 0 byte                   *
    3086            ;*****************************************************************************
    3087 000000       Adc:
    3088            ;* --------------------------------------------------------------------------*
    3089                    .dwcfi  cfa_offset, 2
    3090                    .dwcfi  save_reg_to_mem, 16, -2
    3091                    .dwpsn  file "..\FBF.h",line 47,column 3,is_stmt,isa 0
    3092 000000 40B2          MOV.W     #20720,&ADC10CTL1+0   ; [] |47| 
         000002 50F0 
         000004 0000!
    3093                    .dwpsn  file "..\FBF.h",line 48,column 3,is_stmt,isa 0
    3094 000006 40B2          MOV.W     #7576,&ADC10CTL0+0    ; [] |48| 
         000008 1D98 
         00000a 0000!
    3095                    .dwpsn  file "..\FBF.h",line 49,column 3,is_stmt,isa 0
    3096 00000c D0F2          OR.B      #56,&ADC10AE0+0       ; [] |49| 
         00000e 0038 
         000010 0000!
    3097                    .dwpsn  file "..\FBF.h",line 50,column 2,is_stmt,isa 0
    3098            $C$DW$243       .dwtag  DW_TAG_TI_branch
    3099                    .dwattr $C$DW$243, DW_AT_low_pc(0x00)
    3100                    .dwattr $C$DW$243, DW_AT_TI_return
    3101 000012 4130          RET       ; [] 
    3102                    ; [] 
    3103                    .dwattr $C$DW$242, DW_AT_TI_end_file("..\FBF.h")
    3104                    .dwattr $C$DW$242, DW_AT_TI_end_line(0x32)
    3105                    .dwattr $C$DW$242, DW_AT_TI_end_column(0x02)
    3106                    .dwendentry
    3107                    .dwendtag $C$DW$242
    3108            
    3109 000000               .sect   ".text:inicioADC"
    3110                    .align  2
    3111                    .clink
    3112                    .global inicioADC
    3113            
    3114            $C$DW$244       .dwtag  DW_TAG_subprogram, DW_AT_name("inicioADC")
    3115                    .dwattr $C$DW$244, DW_AT_low_pc(inicioADC)
    3116                    .dwattr $C$DW$244, DW_AT_high_pc(0x00)
MSP430 Assembler PC v4.2.1 Sat Jan 28 11:33:17 2017

Tools Copyright (c) 2003-2013 Texas Instruments Incorporated
C:\Users\mauricio\AppData\Local\Temp\0876010                         PAGE   68

    3117                    .dwattr $C$DW$244, DW_AT_TI_symbol_name("inicioADC")
    3118                    .dwattr $C$DW$244, DW_AT_external
    3119                    .dwattr $C$DW$244, DW_AT_TI_begin_file("..\FBF.h")
    3120                    .dwattr $C$DW$244, DW_AT_TI_begin_line(0x34)
    3121                    .dwattr $C$DW$244, DW_AT_TI_begin_column(0x07)
    3122                    .dwattr $C$DW$244, DW_AT_decl_file("..\FBF.h")
    3123                    .dwattr $C$DW$244, DW_AT_decl_line(0x34)
    3124                    .dwattr $C$DW$244, DW_AT_decl_column(0x07)
    3125                    .dwattr $C$DW$244, DW_AT_TI_max_frame_size(0x02)
    3126                    .dwpsn  file "..\FBF.h",line 52,column 18,is_stmt,address inicioADC,isa 0
    3127            
    3128                    .dwfde $C$DW$CIE, inicioADC
    3129            
    3130            ;*****************************************************************************
    3131            ;* FUNCTION NAME: inicioADC                                                  *
    3132            ;*                                                                           *
    3133            ;*   Regs Modified     : SP                                                  *
    3134            ;*   Regs Used         : SP                                                  *
    3135            ;*   Local Frame Size  : 0 Args + 0 Auto + 0 Save = 0 byte                   *
    3136            ;*****************************************************************************
    3137 000000       inicioADC:
    3138            ;* --------------------------------------------------------------------------*
    3139                    .dwcfi  cfa_offset, 2
    3140                    .dwcfi  save_reg_to_mem, 16, -2
    3141                    .dwpsn  file "..\FBF.h",line 53,column 3,is_stmt,isa 0
    3142 000000 D0B2          OR.W      #3,&ADC10CTL0+0       ; [] |53| 
         000002 0003 
         000004 0000!
    3143                    .dwpsn  file "..\FBF.h",line 54,column 3,is_stmt,isa 0
    3144            $C$DW$245       .dwtag  DW_TAG_TI_branch
    3145                    .dwattr $C$DW$245, DW_AT_low_pc(0x00)
    3146                    .dwattr $C$DW$245, DW_AT_TI_return
    3147 000006 4130          RET       ; [] 
    3148                    ; [] 
    3149                    .dwattr $C$DW$244, DW_AT_TI_end_file("..\FBF.h")
    3150                    .dwattr $C$DW$244, DW_AT_TI_end_line(0x36)
    3151                    .dwattr $C$DW$244, DW_AT_TI_end_column(0x03)
    3152                    .dwendentry
    3153                    .dwendtag $C$DW$244
    3154            
    3155 000000               .sect   ".text:Enableinterrupts"
    3156                    .align  2
    3157                    .clink
    3158                    .global Enableinterrupts
    3159            
    3160            $C$DW$246       .dwtag  DW_TAG_subprogram, DW_AT_name("Enableinterrupts")
    3161                    .dwattr $C$DW$246, DW_AT_low_pc(Enableinterrupts)
    3162                    .dwattr $C$DW$246, DW_AT_high_pc(0x00)
    3163                    .dwattr $C$DW$246, DW_AT_TI_symbol_name("Enableinterrupts")
    3164                    .dwattr $C$DW$246, DW_AT_external
    3165                    .dwattr $C$DW$246, DW_AT_TI_begin_file("..\FBF.h")
    3166                    .dwattr $C$DW$246, DW_AT_TI_begin_line(0x3b)
    3167                    .dwattr $C$DW$246, DW_AT_TI_begin_column(0x07)
    3168                    .dwattr $C$DW$246, DW_AT_decl_file("..\FBF.h")
    3169                    .dwattr $C$DW$246, DW_AT_decl_line(0x3b)
MSP430 Assembler PC v4.2.1 Sat Jan 28 11:33:17 2017

Tools Copyright (c) 2003-2013 Texas Instruments Incorporated
C:\Users\mauricio\AppData\Local\Temp\0876010                         PAGE   69

    3170                    .dwattr $C$DW$246, DW_AT_decl_column(0x07)
    3171                    .dwattr $C$DW$246, DW_AT_TI_max_frame_size(0x02)
    3172                    .dwpsn  file "..\FBF.h",line 60,column 2,is_stmt,address Enableinterrupts,isa 0
    3173            
    3174                    .dwfde $C$DW$CIE, Enableinterrupts
    3175            
    3176            ;*****************************************************************************
    3177            ;* FUNCTION NAME: Enableinterrupts                                           *
    3178            ;*                                                                           *
    3179            ;*   Regs Modified     : SP,SR                                               *
    3180            ;*   Regs Used         : SP,SR                                               *
    3181            ;*   Local Frame Size  : 0 Args + 0 Auto + 0 Save = 0 byte                   *
    3182            ;*****************************************************************************
    3183 000000       Enableinterrupts:
