MSP430 Assembler PC v4.2.1 Sat Jan 28 11:33:39 2017

Tools Copyright (c) 2003-2013 Texas Instruments Incorporated
C:\Users\mauricio\AppData\Local\Temp\0410010                         PAGE    1

       1            ;******************************************************************************
       2            ;* MSP430 C/C++ Codegen                                             PC v4.2.1 *
       3            ;* Date/Time created: Sat Jan 28 11:33:38 2017                                *
       4            ;******************************************************************************
       5                    .compiler_opts --abi=eabi --diag_wrap=off --hll_source=on --mem_model:code=small --mem_model:d
       6            
       7            $C$DW$CU        .dwtag  DW_TAG_compile_unit
       8                    .dwattr $C$DW$CU, DW_AT_name("../dummyload.c")
       9                    .dwattr $C$DW$CU, DW_AT_producer("TI MSP430 C/C++ Codegen PC v4.2.1 Copyright (c) 2003-2013 Te
      10                    .dwattr $C$DW$CU, DW_AT_TI_version(0x01)
      11                    .dwattr $C$DW$CU, DW_AT_comp_dir("C:\ti\workspace\DUMMYTEST\Debug")
      12            ;       Interrupt vector table mappings
      13 000000               .intvec ".int12",       Timer1a1_isr
         000000       
      14            
      15            $C$DW$1 .dwtag  DW_TAG_subprogram, DW_AT_name("_bis_SR_register")
      16                    .dwattr $C$DW$1, DW_AT_TI_symbol_name("_bis_SR_register")
      17                    .dwattr $C$DW$1, DW_AT_type(*$C$DW$T$9)
      18                    .dwattr $C$DW$1, DW_AT_declaration
      19                    .dwattr $C$DW$1, DW_AT_external
      20                    .dwattr $C$DW$1, DW_AT_decl_file("C:\ti\ccsv5\ccs_base\msp430\include\in430.h")
      21                    .dwattr $C$DW$1, DW_AT_decl_line(0x17)
      22                    .dwattr $C$DW$1, DW_AT_decl_column(0x10)
      23            $C$DW$2 .dwtag  DW_TAG_formal_parameter
      24                    .dwattr $C$DW$2, DW_AT_type(*$C$DW$T$9)
      25                    .dwendtag $C$DW$1
      26            
      27            
      28            $C$DW$3 .dwtag  DW_TAG_subprogram, DW_AT_name("_disable_interrupts")
      29                    .dwattr $C$DW$3, DW_AT_TI_symbol_name("_disable_interrupts")
      30                    .dwattr $C$DW$3, DW_AT_declaration
      31                    .dwattr $C$DW$3, DW_AT_external
      32                    .dwattr $C$DW$3, DW_AT_decl_file("C:\ti\ccsv5\ccs_base\msp430\include\in430.h")
      33                    .dwattr $C$DW$3, DW_AT_decl_line(0x14)
      34                    .dwattr $C$DW$3, DW_AT_decl_column(0x06)
      35            
      36            $C$DW$4 .dwtag  DW_TAG_subprogram, DW_AT_name("_enable_interrupts")
      37                    .dwattr $C$DW$4, DW_AT_TI_symbol_name("_enable_interrupts")
      38                    .dwattr $C$DW$4, DW_AT_declaration
      39                    .dwattr $C$DW$4, DW_AT_external
      40                    .dwattr $C$DW$4, DW_AT_decl_file("C:\ti\ccsv5\ccs_base\msp430\include\in430.h")
      41                    .dwattr $C$DW$4, DW_AT_decl_line(0x13)
      42                    .dwattr $C$DW$4, DW_AT_decl_column(0x06)
      43            
      44            $C$DW$5 .dwtag  DW_TAG_subprogram, DW_AT_name("_delay_cycles")
      45                    .dwattr $C$DW$5, DW_AT_TI_symbol_name("_delay_cycles")
      46                    .dwattr $C$DW$5, DW_AT_declaration
      47                    .dwattr $C$DW$5, DW_AT_external
      48            $C$DW$6 .dwtag  DW_TAG_formal_parameter
      49                    .dwattr $C$DW$6, DW_AT_type(*$C$DW$T$13)
      50                    .dwendtag $C$DW$5
      51            
      52            
      53            $C$DW$7 .dwtag  DW_TAG_subprogram, DW_AT_name("read_button")
      54                    .dwattr $C$DW$7, DW_AT_TI_symbol_name("read_button")
MSP430 Assembler PC v4.2.1 Sat Jan 28 11:33:39 2017

Tools Copyright (c) 2003-2013 Texas Instruments Incorporated
C:\Users\mauricio\AppData\Local\Temp\0410010                         PAGE    2

      55                    .dwattr $C$DW$7, DW_AT_type(*$C$DW$T$6)
      56                    .dwattr $C$DW$7, DW_AT_declaration
      57                    .dwattr $C$DW$7, DW_AT_external
      58                    .dwattr $C$DW$7, DW_AT_decl_file("../dummyload.c")
      59                    .dwattr $C$DW$7, DW_AT_decl_line(0x14)
      60                    .dwattr $C$DW$7, DW_AT_decl_column(0x0a)
      61            $C$DW$8 .dwtag  DW_TAG_variable, DW_AT_name("IE2")
      62                    .dwattr $C$DW$8, DW_AT_TI_symbol_name("IE2")
      63                    .dwattr $C$DW$8, DW_AT_type(*$C$DW$T$37)
      64                    .dwattr $C$DW$8, DW_AT_declaration
      65                    .dwattr $C$DW$8, DW_AT_external
      66                    .dwattr $C$DW$8, DW_AT_decl_file("C:/ti/ccsv5/ccs_base/msp430/include/msp430g2553.h")
      67                    .dwattr $C$DW$8, DW_AT_decl_line(0x9b)
      68                    .dwattr $C$DW$8, DW_AT_decl_column(0x01)
      69            $C$DW$9 .dwtag  DW_TAG_variable, DW_AT_name("IFG2")
      70                    .dwattr $C$DW$9, DW_AT_TI_symbol_name("IFG2")
      71                    .dwattr $C$DW$9, DW_AT_type(*$C$DW$T$37)
      72                    .dwattr $C$DW$9, DW_AT_declaration
      73                    .dwattr $C$DW$9, DW_AT_external
      74                    .dwattr $C$DW$9, DW_AT_decl_file("C:/ti/ccsv5/ccs_base/msp430/include/msp430g2553.h")
      75                    .dwattr $C$DW$9, DW_AT_decl_line(0xa2)
      76                    .dwattr $C$DW$9, DW_AT_decl_column(0x01)
      77            $C$DW$10        .dwtag  DW_TAG_variable, DW_AT_name("ADC10AE0")
      78                    .dwattr $C$DW$10, DW_AT_TI_symbol_name("ADC10AE0")
      79                    .dwattr $C$DW$10, DW_AT_type(*$C$DW$T$37)
      80                    .dwattr $C$DW$10, DW_AT_declaration
      81                    .dwattr $C$DW$10, DW_AT_external
      82                    .dwattr $C$DW$10, DW_AT_decl_file("C:/ti/ccsv5/ccs_base/msp430/include/msp430g2553.h")
      83                    .dwattr $C$DW$10, DW_AT_decl_line(0xb0)
      84                    .dwattr $C$DW$10, DW_AT_decl_column(0x01)
      85            $C$DW$11        .dwtag  DW_TAG_variable, DW_AT_name("ADC10CTL0")
      86                    .dwattr $C$DW$11, DW_AT_TI_symbol_name("ADC10CTL0")
      87                    .dwattr $C$DW$11, DW_AT_type(*$C$DW$T$50)
      88                    .dwattr $C$DW$11, DW_AT_declaration
      89                    .dwattr $C$DW$11, DW_AT_external
      90                    .dwattr $C$DW$11, DW_AT_decl_file("C:/ti/ccsv5/ccs_base/msp430/include/msp430g2553.h")
      91                    .dwattr $C$DW$11, DW_AT_decl_line(0xb2)
      92                    .dwattr $C$DW$11, DW_AT_decl_column(0x01)
      93            $C$DW$12        .dwtag  DW_TAG_variable, DW_AT_name("ADC10CTL1")
      94                    .dwattr $C$DW$12, DW_AT_TI_symbol_name("ADC10CTL1")
      95                    .dwattr $C$DW$12, DW_AT_type(*$C$DW$T$50)
      96                    .dwattr $C$DW$12, DW_AT_declaration
      97                    .dwattr $C$DW$12, DW_AT_external
      98                    .dwattr $C$DW$12, DW_AT_decl_file("C:/ti/ccsv5/ccs_base/msp430/include/msp430g2553.h")
      99                    .dwattr $C$DW$12, DW_AT_decl_line(0xb3)
     100                    .dwattr $C$DW$12, DW_AT_decl_column(0x01)
     101            $C$DW$13        .dwtag  DW_TAG_variable, DW_AT_name("ADC10MEM")
     102                    .dwattr $C$DW$13, DW_AT_TI_symbol_name("ADC10MEM")
     103                    .dwattr $C$DW$13, DW_AT_type(*$C$DW$T$50)
     104                    .dwattr $C$DW$13, DW_AT_declaration
     105                    .dwattr $C$DW$13, DW_AT_external
     106                    .dwattr $C$DW$13, DW_AT_decl_file("C:/ti/ccsv5/ccs_base/msp430/include/msp430g2553.h")
     107                    .dwattr $C$DW$13, DW_AT_decl_line(0xb4)
     108                    .dwattr $C$DW$13, DW_AT_decl_column(0x01)
     109            $C$DW$14        .dwtag  DW_TAG_variable, DW_AT_name("DCOCTL")
MSP430 Assembler PC v4.2.1 Sat Jan 28 11:33:39 2017

Tools Copyright (c) 2003-2013 Texas Instruments Incorporated
C:\Users\mauricio\AppData\Local\Temp\0410010                         PAGE    3

     110                    .dwattr $C$DW$14, DW_AT_TI_symbol_name("DCOCTL")
     111                    .dwattr $C$DW$14, DW_AT_type(*$C$DW$T$37)
     112                    .dwattr $C$DW$14, DW_AT_declaration
     113                    .dwattr $C$DW$14, DW_AT_external
     114                    .dwattr $C$DW$14, DW_AT_decl_file("C:/ti/ccsv5/ccs_base/msp430/include/msp430g2553.h")
     115                    .dwattr $C$DW$14, DW_AT_decl_line(0x11d)
     116                    .dwattr $C$DW$14, DW_AT_decl_column(0x01)
     117            $C$DW$15        .dwtag  DW_TAG_variable, DW_AT_name("BCSCTL1")
     118                    .dwattr $C$DW$15, DW_AT_TI_symbol_name("BCSCTL1")
     119                    .dwattr $C$DW$15, DW_AT_type(*$C$DW$T$37)
     120                    .dwattr $C$DW$15, DW_AT_declaration
     121                    .dwattr $C$DW$15, DW_AT_external
     122                    .dwattr $C$DW$15, DW_AT_decl_file("C:/ti/ccsv5/ccs_base/msp430/include/msp430g2553.h")
     123                    .dwattr $C$DW$15, DW_AT_decl_line(0x11e)
     124                    .dwattr $C$DW$15, DW_AT_decl_column(0x01)
     125            $C$DW$16        .dwtag  DW_TAG_variable, DW_AT_name("BCSCTL2")
     126                    .dwattr $C$DW$16, DW_AT_TI_symbol_name("BCSCTL2")
     127                    .dwattr $C$DW$16, DW_AT_type(*$C$DW$T$37)
     128                    .dwattr $C$DW$16, DW_AT_declaration
     129                    .dwattr $C$DW$16, DW_AT_external
     130                    .dwattr $C$DW$16, DW_AT_decl_file("C:/ti/ccsv5/ccs_base/msp430/include/msp430g2553.h")
     131                    .dwattr $C$DW$16, DW_AT_decl_line(0x11f)
     132                    .dwattr $C$DW$16, DW_AT_decl_column(0x01)
     133            $C$DW$17        .dwtag  DW_TAG_variable, DW_AT_name("P1DIR")
     134                    .dwattr $C$DW$17, DW_AT_TI_symbol_name("P1DIR")
     135                    .dwattr $C$DW$17, DW_AT_type(*$C$DW$T$37)
     136                    .dwattr $C$DW$17, DW_AT_declaration
     137                    .dwattr $C$DW$17, DW_AT_external
     138                    .dwattr $C$DW$17, DW_AT_decl_file("C:/ti/ccsv5/ccs_base/msp430/include/msp430g2553.h")
     139                    .dwattr $C$DW$17, DW_AT_decl_line(0x1c9)
     140                    .dwattr $C$DW$17, DW_AT_decl_column(0x01)
     141            $C$DW$18        .dwtag  DW_TAG_variable, DW_AT_name("P1SEL")
     142                    .dwattr $C$DW$18, DW_AT_TI_symbol_name("P1SEL")
     143                    .dwattr $C$DW$18, DW_AT_type(*$C$DW$T$37)
     144                    .dwattr $C$DW$18, DW_AT_declaration
     145                    .dwattr $C$DW$18, DW_AT_external
     146                    .dwattr $C$DW$18, DW_AT_decl_file("C:/ti/ccsv5/ccs_base/msp430/include/msp430g2553.h")
     147                    .dwattr $C$DW$18, DW_AT_decl_line(0x1cd)
     148                    .dwattr $C$DW$18, DW_AT_decl_column(0x01)
     149            $C$DW$19        .dwtag  DW_TAG_variable, DW_AT_name("P1SEL2")
     150                    .dwattr $C$DW$19, DW_AT_TI_symbol_name("P1SEL2")
     151                    .dwattr $C$DW$19, DW_AT_type(*$C$DW$T$37)
     152                    .dwattr $C$DW$19, DW_AT_declaration
     153                    .dwattr $C$DW$19, DW_AT_external
     154                    .dwattr $C$DW$19, DW_AT_decl_file("C:/ti/ccsv5/ccs_base/msp430/include/msp430g2553.h")
     155                    .dwattr $C$DW$19, DW_AT_decl_line(0x1ce)
     156                    .dwattr $C$DW$19, DW_AT_decl_column(0x01)
     157            $C$DW$20        .dwtag  DW_TAG_variable, DW_AT_name("P2OUT")
     158                    .dwattr $C$DW$20, DW_AT_TI_symbol_name("P2OUT")
     159                    .dwattr $C$DW$20, DW_AT_type(*$C$DW$T$37)
     160                    .dwattr $C$DW$20, DW_AT_declaration
     161                    .dwattr $C$DW$20, DW_AT_external
     162                    .dwattr $C$DW$20, DW_AT_decl_file("C:/ti/ccsv5/ccs_base/msp430/include/msp430g2553.h")
     163                    .dwattr $C$DW$20, DW_AT_decl_line(0x1d2)
     164                    .dwattr $C$DW$20, DW_AT_decl_column(0x01)
MSP430 Assembler PC v4.2.1 Sat Jan 28 11:33:39 2017

Tools Copyright (c) 2003-2013 Texas Instruments Incorporated
C:\Users\mauricio\AppData\Local\Temp\0410010                         PAGE    4

     165            $C$DW$21        .dwtag  DW_TAG_variable, DW_AT_name("P2DIR")
     166                    .dwattr $C$DW$21, DW_AT_TI_symbol_name("P2DIR")
     167                    .dwattr $C$DW$21, DW_AT_type(*$C$DW$T$37)
     168                    .dwattr $C$DW$21, DW_AT_declaration
     169                    .dwattr $C$DW$21, DW_AT_external
     170                    .dwattr $C$DW$21, DW_AT_decl_file("C:/ti/ccsv5/ccs_base/msp430/include/msp430g2553.h")
     171                    .dwattr $C$DW$21, DW_AT_decl_line(0x1d3)
     172                    .dwattr $C$DW$21, DW_AT_decl_column(0x01)
     173            $C$DW$22        .dwtag  DW_TAG_variable, DW_AT_name("P2SEL")
     174                    .dwattr $C$DW$22, DW_AT_TI_symbol_name("P2SEL")
     175                    .dwattr $C$DW$22, DW_AT_type(*$C$DW$T$37)
     176                    .dwattr $C$DW$22, DW_AT_declaration
     177                    .dwattr $C$DW$22, DW_AT_external
     178                    .dwattr $C$DW$22, DW_AT_decl_file("C:/ti/ccsv5/ccs_base/msp430/include/msp430g2553.h")
     179                    .dwattr $C$DW$22, DW_AT_decl_line(0x1d7)
     180                    .dwattr $C$DW$22, DW_AT_decl_column(0x01)
     181            $C$DW$23        .dwtag  DW_TAG_variable, DW_AT_name("P2SEL2")
     182                    .dwattr $C$DW$23, DW_AT_TI_symbol_name("P2SEL2")
     183                    .dwattr $C$DW$23, DW_AT_type(*$C$DW$T$37)
     184                    .dwattr $C$DW$23, DW_AT_declaration
     185                    .dwattr $C$DW$23, DW_AT_external
     186                    .dwattr $C$DW$23, DW_AT_decl_file("C:/ti/ccsv5/ccs_base/msp430/include/msp430g2553.h")
     187                    .dwattr $C$DW$23, DW_AT_decl_line(0x1d8)
     188                    .dwattr $C$DW$23, DW_AT_decl_column(0x01)
     189            $C$DW$24        .dwtag  DW_TAG_variable, DW_AT_name("TA0CTL")
     190                    .dwattr $C$DW$24, DW_AT_TI_symbol_name("TA0CTL")
     191                    .dwattr $C$DW$24, DW_AT_type(*$C$DW$T$50)
     192                    .dwattr $C$DW$24, DW_AT_declaration
     193                    .dwattr $C$DW$24, DW_AT_external
     194                    .dwattr $C$DW$24, DW_AT_decl_file("C:/ti/ccsv5/ccs_base/msp430/include/msp430g2553.h")
     195                    .dwattr $C$DW$24, DW_AT_decl_line(0x1ed)
     196                    .dwattr $C$DW$24, DW_AT_decl_column(0x01)
     197            $C$DW$25        .dwtag  DW_TAG_variable, DW_AT_name("TA0CCTL0")
     198                    .dwattr $C$DW$25, DW_AT_TI_symbol_name("TA0CCTL0")
     199                    .dwattr $C$DW$25, DW_AT_type(*$C$DW$T$50)
     200                    .dwattr $C$DW$25, DW_AT_declaration
     201                    .dwattr $C$DW$25, DW_AT_external
     202                    .dwattr $C$DW$25, DW_AT_decl_file("C:/ti/ccsv5/ccs_base/msp430/include/msp430g2553.h")
     203                    .dwattr $C$DW$25, DW_AT_decl_line(0x1ee)
     204                    .dwattr $C$DW$25, DW_AT_decl_column(0x01)
     205            $C$DW$26        .dwtag  DW_TAG_variable, DW_AT_name("TA0CCTL1")
     206                    .dwattr $C$DW$26, DW_AT_TI_symbol_name("TA0CCTL1")
     207                    .dwattr $C$DW$26, DW_AT_type(*$C$DW$T$50)
     208                    .dwattr $C$DW$26, DW_AT_declaration
     209                    .dwattr $C$DW$26, DW_AT_external
     210                    .dwattr $C$DW$26, DW_AT_decl_file("C:/ti/ccsv5/ccs_base/msp430/include/msp430g2553.h")
     211                    .dwattr $C$DW$26, DW_AT_decl_line(0x1ef)
     212                    .dwattr $C$DW$26, DW_AT_decl_column(0x01)
     213            $C$DW$27        .dwtag  DW_TAG_variable, DW_AT_name("TA0CCR0")
     214                    .dwattr $C$DW$27, DW_AT_TI_symbol_name("TA0CCR0")
     215                    .dwattr $C$DW$27, DW_AT_type(*$C$DW$T$50)
     216                    .dwattr $C$DW$27, DW_AT_declaration
     217                    .dwattr $C$DW$27, DW_AT_external
     218                    .dwattr $C$DW$27, DW_AT_decl_file("C:/ti/ccsv5/ccs_base/msp430/include/msp430g2553.h")
     219                    .dwattr $C$DW$27, DW_AT_decl_line(0x1f2)
MSP430 Assembler PC v4.2.1 Sat Jan 28 11:33:39 2017

Tools Copyright (c) 2003-2013 Texas Instruments Incorporated
C:\Users\mauricio\AppData\Local\Temp\0410010                         PAGE    5

     220                    .dwattr $C$DW$27, DW_AT_decl_column(0x01)
     221            $C$DW$28        .dwtag  DW_TAG_variable, DW_AT_name("TA0CCR1")
     222                    .dwattr $C$DW$28, DW_AT_TI_symbol_name("TA0CCR1")
     223                    .dwattr $C$DW$28, DW_AT_type(*$C$DW$T$50)
     224                    .dwattr $C$DW$28, DW_AT_declaration
     225                    .dwattr $C$DW$28, DW_AT_external
     226                    .dwattr $C$DW$28, DW_AT_decl_file("C:/ti/ccsv5/ccs_base/msp430/include/msp430g2553.h")
     227                    .dwattr $C$DW$28, DW_AT_decl_line(0x1f3)
     228                    .dwattr $C$DW$28, DW_AT_decl_column(0x01)
     229            $C$DW$29        .dwtag  DW_TAG_variable, DW_AT_name("TA1CTL")
     230                    .dwattr $C$DW$29, DW_AT_TI_symbol_name("TA1CTL")
     231                    .dwattr $C$DW$29, DW_AT_type(*$C$DW$T$50)
     232                    .dwattr $C$DW$29, DW_AT_declaration
     233                    .dwattr $C$DW$29, DW_AT_external
     234                    .dwattr $C$DW$29, DW_AT_decl_file("C:/ti/ccsv5/ccs_base/msp430/include/msp430g2553.h")
     235                    .dwattr $C$DW$29, DW_AT_decl_line(0x25e)
     236                    .dwattr $C$DW$29, DW_AT_decl_column(0x01)
     237            $C$DW$30        .dwtag  DW_TAG_variable, DW_AT_name("TA1CCTL1")
     238                    .dwattr $C$DW$30, DW_AT_TI_symbol_name("TA1CCTL1")
     239                    .dwattr $C$DW$30, DW_AT_type(*$C$DW$T$50)
     240                    .dwattr $C$DW$30, DW_AT_declaration
     241                    .dwattr $C$DW$30, DW_AT_external
     242                    .dwattr $C$DW$30, DW_AT_decl_file("C:/ti/ccsv5/ccs_base/msp430/include/msp430g2553.h")
     243                    .dwattr $C$DW$30, DW_AT_decl_line(0x260)
     244                    .dwattr $C$DW$30, DW_AT_decl_column(0x01)
     245            $C$DW$31        .dwtag  DW_TAG_variable, DW_AT_name("TA1CCR0")
     246                    .dwattr $C$DW$31, DW_AT_TI_symbol_name("TA1CCR0")
     247                    .dwattr $C$DW$31, DW_AT_type(*$C$DW$T$50)
     248                    .dwattr $C$DW$31, DW_AT_declaration
     249                    .dwattr $C$DW$31, DW_AT_external
     250                    .dwattr $C$DW$31, DW_AT_decl_file("C:/ti/ccsv5/ccs_base/msp430/include/msp430g2553.h")
     251                    .dwattr $C$DW$31, DW_AT_decl_line(0x263)
     252                    .dwattr $C$DW$31, DW_AT_decl_column(0x01)
     253            $C$DW$32        .dwtag  DW_TAG_variable, DW_AT_name("TA1CCR1")
     254                    .dwattr $C$DW$32, DW_AT_TI_symbol_name("TA1CCR1")
     255                    .dwattr $C$DW$32, DW_AT_type(*$C$DW$T$50)
     256                    .dwattr $C$DW$32, DW_AT_declaration
     257                    .dwattr $C$DW$32, DW_AT_external
     258                    .dwattr $C$DW$32, DW_AT_decl_file("C:/ti/ccsv5/ccs_base/msp430/include/msp430g2553.h")
     259                    .dwattr $C$DW$32, DW_AT_decl_line(0x264)
     260                    .dwattr $C$DW$32, DW_AT_decl_column(0x01)
     261            $C$DW$33        .dwtag  DW_TAG_variable, DW_AT_name("UCA0CTL1")
     262                    .dwattr $C$DW$33, DW_AT_TI_symbol_name("UCA0CTL1")
     263                    .dwattr $C$DW$33, DW_AT_type(*$C$DW$T$37)
     264                    .dwattr $C$DW$33, DW_AT_declaration
     265                    .dwattr $C$DW$33, DW_AT_external
     266                    .dwattr $C$DW$33, DW_AT_decl_file("C:/ti/ccsv5/ccs_base/msp430/include/msp430g2553.h")
     267                    .dwattr $C$DW$33, DW_AT_decl_line(0x277)
     268                    .dwattr $C$DW$33, DW_AT_decl_column(0x01)
     269            $C$DW$34        .dwtag  DW_TAG_variable, DW_AT_name("UCA0BR0")
     270                    .dwattr $C$DW$34, DW_AT_TI_symbol_name("UCA0BR0")
     271                    .dwattr $C$DW$34, DW_AT_type(*$C$DW$T$37)
     272                    .dwattr $C$DW$34, DW_AT_declaration
     273                    .dwattr $C$DW$34, DW_AT_external
     274                    .dwattr $C$DW$34, DW_AT_decl_file("C:/ti/ccsv5/ccs_base/msp430/include/msp430g2553.h")
MSP430 Assembler PC v4.2.1 Sat Jan 28 11:33:39 2017

Tools Copyright (c) 2003-2013 Texas Instruments Incorporated
C:\Users\mauricio\AppData\Local\Temp\0410010                         PAGE    6

     275                    .dwattr $C$DW$34, DW_AT_decl_line(0x278)
     276                    .dwattr $C$DW$34, DW_AT_decl_column(0x01)
     277            $C$DW$35        .dwtag  DW_TAG_variable, DW_AT_name("UCA0BR1")
     278                    .dwattr $C$DW$35, DW_AT_TI_symbol_name("UCA0BR1")
     279                    .dwattr $C$DW$35, DW_AT_type(*$C$DW$T$37)
     280                    .dwattr $C$DW$35, DW_AT_declaration
     281                    .dwattr $C$DW$35, DW_AT_external
     282                    .dwattr $C$DW$35, DW_AT_decl_file("C:/ti/ccsv5/ccs_base/msp430/include/msp430g2553.h")
     283                    .dwattr $C$DW$35, DW_AT_decl_line(0x279)
     284                    .dwattr $C$DW$35, DW_AT_decl_column(0x01)
     285            $C$DW$36        .dwtag  DW_TAG_variable, DW_AT_name("UCA0MCTL")
     286                    .dwattr $C$DW$36, DW_AT_TI_symbol_name("UCA0MCTL")
     287                    .dwattr $C$DW$36, DW_AT_type(*$C$DW$T$37)
     288                    .dwattr $C$DW$36, DW_AT_declaration
     289                    .dwattr $C$DW$36, DW_AT_external
     290                    .dwattr $C$DW$36, DW_AT_decl_file("C:/ti/ccsv5/ccs_base/msp430/include/msp430g2553.h")
     291                    .dwattr $C$DW$36, DW_AT_decl_line(0x27a)
     292                    .dwattr $C$DW$36, DW_AT_decl_column(0x01)
     293            $C$DW$37        .dwtag  DW_TAG_variable, DW_AT_name("UCA0TXBUF")
     294                    .dwattr $C$DW$37, DW_AT_TI_symbol_name("UCA0TXBUF")
     295                    .dwattr $C$DW$37, DW_AT_type(*$C$DW$T$37)
     296                    .dwattr $C$DW$37, DW_AT_declaration
     297                    .dwattr $C$DW$37, DW_AT_external
     298                    .dwattr $C$DW$37, DW_AT_decl_file("C:/ti/ccsv5/ccs_base/msp430/include/msp430g2553.h")
     299                    .dwattr $C$DW$37, DW_AT_decl_line(0x27d)
     300                    .dwattr $C$DW$37, DW_AT_decl_column(0x01)
     301            $C$DW$38        .dwtag  DW_TAG_variable, DW_AT_name("WDTCTL")
     302                    .dwattr $C$DW$38, DW_AT_TI_symbol_name("WDTCTL")
     303                    .dwattr $C$DW$38, DW_AT_type(*$C$DW$T$50)
     304                    .dwattr $C$DW$38, DW_AT_declaration
     305                    .dwattr $C$DW$38, DW_AT_external
     306                    .dwattr $C$DW$38, DW_AT_decl_file("C:/ti/ccsv5/ccs_base/msp430/include/msp430g2553.h")
     307                    .dwattr $C$DW$38, DW_AT_decl_line(0x339)
     308                    .dwattr $C$DW$38, DW_AT_decl_column(0x01)
     309            $C$DW$39        .dwtag  DW_TAG_variable, DW_AT_name("CALDCO_16MHZ")
     310                    .dwattr $C$DW$39, DW_AT_TI_symbol_name("CALDCO_16MHZ")
     311                    .dwattr $C$DW$39, DW_AT_type(*$C$DW$T$37)
     312                    .dwattr $C$DW$39, DW_AT_declaration
     313                    .dwattr $C$DW$39, DW_AT_external
     314                    .dwattr $C$DW$39, DW_AT_decl_file("C:/ti/ccsv5/ccs_base/msp430/include/msp430g2553.h")
     315                    .dwattr $C$DW$39, DW_AT_decl_line(0x368)
     316                    .dwattr $C$DW$39, DW_AT_decl_column(0x01)
     317            $C$DW$40        .dwtag  DW_TAG_variable, DW_AT_name("CALBC1_16MHZ")
     318                    .dwattr $C$DW$40, DW_AT_TI_symbol_name("CALBC1_16MHZ")
     319                    .dwattr $C$DW$40, DW_AT_type(*$C$DW$T$37)
     320                    .dwattr $C$DW$40, DW_AT_declaration
     321                    .dwattr $C$DW$40, DW_AT_external
     322                    .dwattr $C$DW$40, DW_AT_decl_file("C:/ti/ccsv5/ccs_base/msp430/include/msp430g2553.h")
     323                    .dwattr $C$DW$40, DW_AT_decl_line(0x369)
     324                    .dwattr $C$DW$40, DW_AT_decl_column(0x01)
     325                    .global aux_char
     326                    .common aux_char,8,2
     327            $C$DW$41        .dwtag  DW_TAG_variable, DW_AT_name("aux_char")
     328                    .dwattr $C$DW$41, DW_AT_TI_symbol_name("aux_char")
     329                    .dwattr $C$DW$41, DW_AT_location[DW_OP_addr aux_char]
MSP430 Assembler PC v4.2.1 Sat Jan 28 11:33:39 2017

Tools Copyright (c) 2003-2013 Texas Instruments Incorporated
C:\Users\mauricio\AppData\Local\Temp\0410010                         PAGE    7

     330                    .dwattr $C$DW$41, DW_AT_type(*$C$DW$T$52)
     331                    .dwattr $C$DW$41, DW_AT_external
     332                    .dwattr $C$DW$41, DW_AT_decl_file("..\CDC.h")
     333                    .dwattr $C$DW$41, DW_AT_decl_line(0x28)
     334                    .dwattr $C$DW$41, DW_AT_decl_column(0x06)
     335                    .global aux_char1
     336                    .common aux_char1,10,2
     337            $C$DW$42        .dwtag  DW_TAG_variable, DW_AT_name("aux_char1")
     338                    .dwattr $C$DW$42, DW_AT_TI_symbol_name("aux_char1")
     339                    .dwattr $C$DW$42, DW_AT_location[DW_OP_addr aux_char1]
     340                    .dwattr $C$DW$42, DW_AT_type(*$C$DW$T$53)
     341                    .dwattr $C$DW$42, DW_AT_external
     342                    .dwattr $C$DW$42, DW_AT_decl_file("..\CDC.h")
     343                    .dwattr $C$DW$42, DW_AT_decl_line(0x29)
     344                    .dwattr $C$DW$42, DW_AT_decl_column(0x06)
     345                    .global soyunvector
     346                    .common soyunvector,2,2
     347            $C$DW$43        .dwtag  DW_TAG_variable, DW_AT_name("soyunvector")
     348                    .dwattr $C$DW$43, DW_AT_TI_symbol_name("soyunvector")
     349                    .dwattr $C$DW$43, DW_AT_location[DW_OP_addr soyunvector]
     350                    .dwattr $C$DW$43, DW_AT_type(*$C$DW$T$54)
     351                    .dwattr $C$DW$43, DW_AT_external
     352                    .dwattr $C$DW$43, DW_AT_decl_file("..\CDC.h")
     353                    .dwattr $C$DW$43, DW_AT_decl_line(0x2a)
     354                    .dwattr $C$DW$43, DW_AT_decl_column(0x06)
     355                    .global signo
     356                    .common signo,1,1
     357            $C$DW$44        .dwtag  DW_TAG_variable, DW_AT_name("signo")
     358                    .dwattr $C$DW$44, DW_AT_TI_symbol_name("signo")
     359                    .dwattr $C$DW$44, DW_AT_location[DW_OP_addr signo]
     360                    .dwattr $C$DW$44, DW_AT_type(*$C$DW$T$6)
     361                    .dwattr $C$DW$44, DW_AT_external
     362                    .dwattr $C$DW$44, DW_AT_decl_file("..\CDC.h")
     363                    .dwattr $C$DW$44, DW_AT_decl_line(0x2d)
     364                    .dwattr $C$DW$44, DW_AT_decl_column(0x07)
     365                    .global _UD
     366                    .common _UD,1,1
     367            $C$DW$45        .dwtag  DW_TAG_variable, DW_AT_name("_UD")
     368                    .dwattr $C$DW$45, DW_AT_TI_symbol_name("_UD")
     369                    .dwattr $C$DW$45, DW_AT_location[DW_OP_addr _UD]
     370                    .dwattr $C$DW$45, DW_AT_type(*$C$DW$T$6)
     371                    .dwattr $C$DW$45, DW_AT_external
     372                    .dwattr $C$DW$45, DW_AT_decl_file("..\CDC.h")
     373                    .dwattr $C$DW$45, DW_AT_decl_line(0x2e)
     374                    .dwattr $C$DW$45, DW_AT_decl_column(0x0f)
     375                    .global _U
     376                    .common _U,1,1
     377            $C$DW$46        .dwtag  DW_TAG_variable, DW_AT_name("_U")
     378                    .dwattr $C$DW$46, DW_AT_TI_symbol_name("_U")
     379                    .dwattr $C$DW$46, DW_AT_location[DW_OP_addr _U]
     380                    .dwattr $C$DW$46, DW_AT_type(*$C$DW$T$6)
     381                    .dwattr $C$DW$46, DW_AT_external
     382                    .dwattr $C$DW$46, DW_AT_decl_file("..\CDC.h")
     383                    .dwattr $C$DW$46, DW_AT_decl_line(0x2e)
     384                    .dwattr $C$DW$46, DW_AT_decl_column(0x13)
MSP430 Assembler PC v4.2.1 Sat Jan 28 11:33:39 2017

Tools Copyright (c) 2003-2013 Texas Instruments Incorporated
C:\Users\mauricio\AppData\Local\Temp\0410010                         PAGE    8

     385                    .global _D
     386                    .common _D,1,1
     387            $C$DW$47        .dwtag  DW_TAG_variable, DW_AT_name("_D")
     388                    .dwattr $C$DW$47, DW_AT_TI_symbol_name("_D")
     389                    .dwattr $C$DW$47, DW_AT_location[DW_OP_addr _D]
     390                    .dwattr $C$DW$47, DW_AT_type(*$C$DW$T$6)
     391                    .dwattr $C$DW$47, DW_AT_external
     392                    .dwattr $C$DW$47, DW_AT_decl_file("..\CDC.h")
     393                    .dwattr $C$DW$47, DW_AT_decl_line(0x2e)
     394                    .dwattr $C$DW$47, DW_AT_decl_column(0x16)
     395                    .global _UM
     396                    .common _UM,1,1
     397            $C$DW$48        .dwtag  DW_TAG_variable, DW_AT_name("_UM")
     398                    .dwattr $C$DW$48, DW_AT_TI_symbol_name("_UM")
     399                    .dwattr $C$DW$48, DW_AT_location[DW_OP_addr _UM]
     400                    .dwattr $C$DW$48, DW_AT_type(*$C$DW$T$6)
     401                    .dwattr $C$DW$48, DW_AT_external
     402                    .dwattr $C$DW$48, DW_AT_decl_file("..\CDC.h")
     403                    .dwattr $C$DW$48, DW_AT_decl_line(0x2e)
     404                    .dwattr $C$DW$48, DW_AT_decl_column(0x19)
     405                    .global _C
     406                    .common _C,1,1
     407            $C$DW$49        .dwtag  DW_TAG_variable, DW_AT_name("_C")
     408                    .dwattr $C$DW$49, DW_AT_TI_symbol_name("_C")
     409                    .dwattr $C$DW$49, DW_AT_location[DW_OP_addr _C]
     410                    .dwattr $C$DW$49, DW_AT_type(*$C$DW$T$6)
     411                    .dwattr $C$DW$49, DW_AT_external
     412                    .dwattr $C$DW$49, DW_AT_decl_file("..\CDC.h")
     413                    .dwattr $C$DW$49, DW_AT_decl_line(0x2e)
     414                    .dwattr $C$DW$49, DW_AT_decl_column(0x1d)
     415                    .global _DM
     416                    .common _DM,1,1
     417            $C$DW$50        .dwtag  DW_TAG_variable, DW_AT_name("_DM")
     418                    .dwattr $C$DW$50, DW_AT_TI_symbol_name("_DM")
     419                    .dwattr $C$DW$50, DW_AT_location[DW_OP_addr _DM]
     420                    .dwattr $C$DW$50, DW_AT_type(*$C$DW$T$6)
     421                    .dwattr $C$DW$50, DW_AT_external
     422                    .dwattr $C$DW$50, DW_AT_decl_file("..\CDC.h")
     423                    .dwattr $C$DW$50, DW_AT_decl_line(0x2e)
     424                    .dwattr $C$DW$50, DW_AT_decl_column(0x20)
     425                    .global u
     426                    .common u,4,2
     427            $C$DW$51        .dwtag  DW_TAG_variable, DW_AT_name("u")
     428                    .dwattr $C$DW$51, DW_AT_TI_symbol_name("u")
     429                    .dwattr $C$DW$51, DW_AT_location[DW_OP_addr u]
     430                    .dwattr $C$DW$51, DW_AT_type(*$C$DW$T$13)
     431                    .dwattr $C$DW$51, DW_AT_external
     432                    .dwattr $C$DW$51, DW_AT_decl_file("..\CDC.h")
     433                    .dwattr $C$DW$51, DW_AT_decl_line(0x2f)
     434                    .dwattr $C$DW$51, DW_AT_decl_column(0x0f)
     435                    .global d
     436                    .common d,4,2
     437            $C$DW$52        .dwtag  DW_TAG_variable, DW_AT_name("d")
     438                    .dwattr $C$DW$52, DW_AT_TI_symbol_name("d")
     439                    .dwattr $C$DW$52, DW_AT_location[DW_OP_addr d]
MSP430 Assembler PC v4.2.1 Sat Jan 28 11:33:39 2017

Tools Copyright (c) 2003-2013 Texas Instruments Incorporated
C:\Users\mauricio\AppData\Local\Temp\0410010                         PAGE    9

     440                    .dwattr $C$DW$52, DW_AT_type(*$C$DW$T$13)
     441                    .dwattr $C$DW$52, DW_AT_external
     442                    .dwattr $C$DW$52, DW_AT_decl_file("..\CDC.h")
     443                    .dwattr $C$DW$52, DW_AT_decl_line(0x2f)
     444                    .dwattr $C$DW$52, DW_AT_decl_column(0x11)
     445                    .global c
     446                    .common c,4,2
     447            $C$DW$53        .dwtag  DW_TAG_variable, DW_AT_name("c")
     448                    .dwattr $C$DW$53, DW_AT_TI_symbol_name("c")
     449                    .dwattr $C$DW$53, DW_AT_location[DW_OP_addr c]
     450                    .dwattr $C$DW$53, DW_AT_type(*$C$DW$T$13)
     451                    .dwattr $C$DW$53, DW_AT_external
     452                    .dwattr $C$DW$53, DW_AT_decl_file("..\CDC.h")
     453                    .dwattr $C$DW$53, DW_AT_decl_line(0x2f)
     454                    .dwattr $C$DW$53, DW_AT_decl_column(0x13)
     455                    .global um
     456                    .common um,4,2
     457            $C$DW$54        .dwtag  DW_TAG_variable, DW_AT_name("um")
     458                    .dwattr $C$DW$54, DW_AT_TI_symbol_name("um")
     459                    .dwattr $C$DW$54, DW_AT_location[DW_OP_addr um]
     460                    .dwattr $C$DW$54, DW_AT_type(*$C$DW$T$13)
     461                    .dwattr $C$DW$54, DW_AT_external
     462                    .dwattr $C$DW$54, DW_AT_decl_file("..\CDC.h")
     463                    .dwattr $C$DW$54, DW_AT_decl_line(0x2f)
     464                    .dwattr $C$DW$54, DW_AT_decl_column(0x15)
     465                    .global dm
     466                    .common dm,4,2
     467            $C$DW$55        .dwtag  DW_TAG_variable, DW_AT_name("dm")
     468                    .dwattr $C$DW$55, DW_AT_TI_symbol_name("dm")
     469                    .dwattr $C$DW$55, DW_AT_location[DW_OP_addr dm]
     470                    .dwattr $C$DW$55, DW_AT_type(*$C$DW$T$13)
     471                    .dwattr $C$DW$55, DW_AT_external
     472                    .dwattr $C$DW$55, DW_AT_decl_file("..\CDC.h")
     473                    .dwattr $C$DW$55, DW_AT_decl_line(0x2f)
     474                    .dwattr $C$DW$55, DW_AT_decl_column(0x18)
     475                    .global cm
     476                    .common cm,4,2
     477            $C$DW$56        .dwtag  DW_TAG_variable, DW_AT_name("cm")
     478                    .dwattr $C$DW$56, DW_AT_TI_symbol_name("cm")
     479                    .dwattr $C$DW$56, DW_AT_location[DW_OP_addr cm]
     480                    .dwattr $C$DW$56, DW_AT_type(*$C$DW$T$13)
     481                    .dwattr $C$DW$56, DW_AT_external
     482                    .dwattr $C$DW$56, DW_AT_decl_file("..\CDC.h")
     483                    .dwattr $C$DW$56, DW_AT_decl_line(0x2f)
     484                    .dwattr $C$DW$56, DW_AT_decl_column(0x1b)
     485                    .global uM
     486                    .common uM,4,2
     487            $C$DW$57        .dwtag  DW_TAG_variable, DW_AT_name("uM")
     488                    .dwattr $C$DW$57, DW_AT_TI_symbol_name("uM")
     489                    .dwattr $C$DW$57, DW_AT_location[DW_OP_addr uM]
     490                    .dwattr $C$DW$57, DW_AT_type(*$C$DW$T$13)
     491                    .dwattr $C$DW$57, DW_AT_external
     492                    .dwattr $C$DW$57, DW_AT_decl_file("..\CDC.h")
     493                    .dwattr $C$DW$57, DW_AT_decl_line(0x2f)
     494                    .dwattr $C$DW$57, DW_AT_decl_column(0x1e)
MSP430 Assembler PC v4.2.1 Sat Jan 28 11:33:39 2017

Tools Copyright (c) 2003-2013 Texas Instruments Incorporated
C:\Users\mauricio\AppData\Local\Temp\0410010                         PAGE   10

     495                    .global dM
     496                    .common dM,4,2
     497            $C$DW$58        .dwtag  DW_TAG_variable, DW_AT_name("dM")
     498                    .dwattr $C$DW$58, DW_AT_TI_symbol_name("dM")
     499                    .dwattr $C$DW$58, DW_AT_location[DW_OP_addr dM]
     500                    .dwattr $C$DW$58, DW_AT_type(*$C$DW$T$13)
     501                    .dwattr $C$DW$58, DW_AT_external
     502                    .dwattr $C$DW$58, DW_AT_decl_file("..\CDC.h")
     503                    .dwattr $C$DW$58, DW_AT_decl_line(0x2f)
     504                    .dwattr $C$DW$58, DW_AT_decl_column(0x21)
     505                    .global cM
     506                    .common cM,4,2
     507            $C$DW$59        .dwtag  DW_TAG_variable, DW_AT_name("cM")
     508                    .dwattr $C$DW$59, DW_AT_TI_symbol_name("cM")
     509                    .dwattr $C$DW$59, DW_AT_location[DW_OP_addr cM]
     510                    .dwattr $C$DW$59, DW_AT_type(*$C$DW$T$13)
     511                    .dwattr $C$DW$59, DW_AT_external
     512                    .dwattr $C$DW$59, DW_AT_decl_file("..\CDC.h")
     513                    .dwattr $C$DW$59, DW_AT_decl_line(0x2f)
     514                    .dwattr $C$DW$59, DW_AT_decl_column(0x24)
     515                    .global auxSR
     516 000000               .data
     517                    .align  2
     518                    .elfsym auxSR,SYM_SIZE(2)
     519 000000       auxSR:
     520 000000 0000          .bits   0,16                    ; auxSR @ 0
     521            
     522            $C$DW$60        .dwtag  DW_TAG_variable, DW_AT_name("auxSR")
     523                    .dwattr $C$DW$60, DW_AT_TI_symbol_name("auxSR")
     524                    .dwattr $C$DW$60, DW_AT_location[DW_OP_addr auxSR]
     525                    .dwattr $C$DW$60, DW_AT_type(*$C$DW$T$11)
     526                    .dwattr $C$DW$60, DW_AT_external
     527                    .dwattr $C$DW$60, DW_AT_decl_file("..\CDC.h")
     528                    .dwattr $C$DW$60, DW_AT_decl_line(0x30)
     529                    .dwattr $C$DW$60, DW_AT_decl_column(0x0e)
     530                    .global dataSR1
     531 000002               .data
     532                    .align  2
     533                    .elfsym dataSR1,SYM_SIZE(2)
     534 000002       dataSR1:
     535 000002 0000          .bits   0,16                    ; dataSR1 @ 0
     536            
     537            $C$DW$61        .dwtag  DW_TAG_variable, DW_AT_name("dataSR1")
     538                    .dwattr $C$DW$61, DW_AT_TI_symbol_name("dataSR1")
     539                    .dwattr $C$DW$61, DW_AT_location[DW_OP_addr dataSR1]
     540                    .dwattr $C$DW$61, DW_AT_type(*$C$DW$T$11)
     541                    .dwattr $C$DW$61, DW_AT_external
     542                    .dwattr $C$DW$61, DW_AT_decl_file("..\CDC.h")
     543                    .dwattr $C$DW$61, DW_AT_decl_line(0x31)
     544                    .dwattr $C$DW$61, DW_AT_decl_column(0x0e)
     545                    .global dataSR2
     546 000004               .data
     547                    .align  2
     548                    .elfsym dataSR2,SYM_SIZE(2)
     549 000004       dataSR2:
MSP430 Assembler PC v4.2.1 Sat Jan 28 11:33:39 2017

Tools Copyright (c) 2003-2013 Texas Instruments Incorporated
C:\Users\mauricio\AppData\Local\Temp\0410010                         PAGE   11

     550 000004 0000          .bits   0,16                    ; dataSR2 @ 0
     551            
     552            $C$DW$62        .dwtag  DW_TAG_variable, DW_AT_name("dataSR2")
     553                    .dwattr $C$DW$62, DW_AT_TI_symbol_name("dataSR2")
     554                    .dwattr $C$DW$62, DW_AT_location[DW_OP_addr dataSR2]
     555                    .dwattr $C$DW$62, DW_AT_type(*$C$DW$T$11)
     556                    .dwattr $C$DW$62, DW_AT_external
     557                    .dwattr $C$DW$62, DW_AT_decl_file("..\CDC.h")
     558                    .dwattr $C$DW$62, DW_AT_decl_line(0x32)
     559                    .dwattr $C$DW$62, DW_AT_decl_column(0x0e)
     560                    .global iSR
     561 000006               .data
     562                    .align  1
     563                    .elfsym iSR,SYM_SIZE(1)
     564 000006       iSR:
     565 000006 0000          .bits   0,8                     ; iSR @ 0
     566            
     567            $C$DW$63        .dwtag  DW_TAG_variable, DW_AT_name("iSR")
     568                    .dwattr $C$DW$63, DW_AT_TI_symbol_name("iSR")
     569                    .dwattr $C$DW$63, DW_AT_location[DW_OP_addr iSR]
     570                    .dwattr $C$DW$63, DW_AT_type(*$C$DW$T$6)
     571                    .dwattr $C$DW$63, DW_AT_external
     572                    .dwattr $C$DW$63, DW_AT_decl_file("..\CDC.h")
     573                    .dwattr $C$DW$63, DW_AT_decl_line(0x33)
     574                    .dwattr $C$DW$63, DW_AT_decl_column(0x10)
     575                    .global TCOUNTT
     576 000007               .data
     577                    .align  2
     578                    .elfsym TCOUNTT,SYM_SIZE(2)
     579 000008       TCOUNTT:
     580 000008 004B          .bits   75,16                   ; TCOUNTT @ 0
     581            
     582            $C$DW$64        .dwtag  DW_TAG_variable, DW_AT_name("TCOUNTT")
     583                    .dwattr $C$DW$64, DW_AT_TI_symbol_name("TCOUNTT")
     584                    .dwattr $C$DW$64, DW_AT_location[DW_OP_addr TCOUNTT]
     585                    .dwattr $C$DW$64, DW_AT_type(*$C$DW$T$50)
     586                    .dwattr $C$DW$64, DW_AT_external
     587                    .dwattr $C$DW$64, DW_AT_decl_file("../dummyload.c")
     588                    .dwattr $C$DW$64, DW_AT_decl_line(0x05)
     589                    .dwattr $C$DW$64, DW_AT_decl_column(0x17)
     590                    .global Tcountt
     591 00000a               .data
     592                    .align  2
     593                    .elfsym Tcountt,SYM_SIZE(2)
     594 00000a       Tcountt:
     595 00000a 0000          .bits   0,16                    ; Tcountt @ 0
     596            
     597            $C$DW$65        .dwtag  DW_TAG_variable, DW_AT_name("Tcountt")
     598                    .dwattr $C$DW$65, DW_AT_TI_symbol_name("Tcountt")
     599                    .dwattr $C$DW$65, DW_AT_location[DW_OP_addr Tcountt]
     600                    .dwattr $C$DW$65, DW_AT_type(*$C$DW$T$50)
     601                    .dwattr $C$DW$65, DW_AT_external
     602                    .dwattr $C$DW$65, DW_AT_decl_file("../dummyload.c")
     603                    .dwattr $C$DW$65, DW_AT_decl_line(0x05)
     604                    .dwattr $C$DW$65, DW_AT_decl_column(0x22)
MSP430 Assembler PC v4.2.1 Sat Jan 28 11:33:39 2017

Tools Copyright (c) 2003-2013 Texas Instruments Incorporated
C:\Users\mauricio\AppData\Local\Temp\0410010                         PAGE   12

     605                    .global count_t
     606 00000c               .data
     607                    .align  2
     608                    .elfsym count_t,SYM_SIZE(2)
     609 00000c       count_t:
     610 00000c 0000          .bits   0,16                    ; count_t @ 0
     611            
     612            $C$DW$66        .dwtag  DW_TAG_variable, DW_AT_name("count_t")
     613                    .dwattr $C$DW$66, DW_AT_TI_symbol_name("count_t")
     614                    .dwattr $C$DW$66, DW_AT_location[DW_OP_addr count_t]
     615                    .dwattr $C$DW$66, DW_AT_type(*$C$DW$T$50)
     616                    .dwattr $C$DW$66, DW_AT_external
     617                    .dwattr $C$DW$66, DW_AT_decl_file("../dummyload.c")
     618                    .dwattr $C$DW$66, DW_AT_decl_line(0x05)
     619                    .dwattr $C$DW$66, DW_AT_decl_column(0x2c)
     620                    .global Vmax
     621                    .common Vmax,2,2
     622            $C$DW$67        .dwtag  DW_TAG_variable, DW_AT_name("Vmax")
     623                    .dwattr $C$DW$67, DW_AT_TI_symbol_name("Vmax")
     624                    .dwattr $C$DW$67, DW_AT_location[DW_OP_addr Vmax]
     625                    .dwattr $C$DW$67, DW_AT_type(*$C$DW$T$11)
     626                    .dwattr $C$DW$67, DW_AT_external
     627                    .dwattr $C$DW$67, DW_AT_decl_file("../dummyload.c")
     628                    .dwattr $C$DW$67, DW_AT_decl_line(0x06)
     629                    .dwattr $C$DW$67, DW_AT_decl_column(0x0e)
     630                    .global Vin
     631                    .common Vin,2,2
     632            $C$DW$68        .dwtag  DW_TAG_variable, DW_AT_name("Vin")
     633                    .dwattr $C$DW$68, DW_AT_TI_symbol_name("Vin")
     634                    .dwattr $C$DW$68, DW_AT_location[DW_OP_addr Vin]
     635                    .dwattr $C$DW$68, DW_AT_type(*$C$DW$T$11)
     636                    .dwattr $C$DW$68, DW_AT_external
     637                    .dwattr $C$DW$68, DW_AT_decl_file("../dummyload.c")
     638                    .dwattr $C$DW$68, DW_AT_decl_line(0x06)
     639                    .dwattr $C$DW$68, DW_AT_decl_column(0x13)
     640                    .global ViES
     641                    .common ViES,2,2
     642            $C$DW$69        .dwtag  DW_TAG_variable, DW_AT_name("ViES")
     643                    .dwattr $C$DW$69, DW_AT_TI_symbol_name("ViES")
     644                    .dwattr $C$DW$69, DW_AT_location[DW_OP_addr ViES]
     645                    .dwattr $C$DW$69, DW_AT_type(*$C$DW$T$11)
     646                    .dwattr $C$DW$69, DW_AT_external
     647                    .dwattr $C$DW$69, DW_AT_decl_file("../dummyload.c")
     648                    .dwattr $C$DW$69, DW_AT_decl_line(0x06)
     649                    .dwattr $C$DW$69, DW_AT_decl_column(0x17)
     650                    .global VES1
     651                    .common VES1,2,2
     652            $C$DW$70        .dwtag  DW_TAG_variable, DW_AT_name("VES1")
     653                    .dwattr $C$DW$70, DW_AT_TI_symbol_name("VES1")
     654                    .dwattr $C$DW$70, DW_AT_location[DW_OP_addr VES1]
     655                    .dwattr $C$DW$70, DW_AT_type(*$C$DW$T$11)
     656                    .dwattr $C$DW$70, DW_AT_external
     657                    .dwattr $C$DW$70, DW_AT_decl_file("../dummyload.c")
     658                    .dwattr $C$DW$70, DW_AT_decl_line(0x06)
     659                    .dwattr $C$DW$70, DW_AT_decl_column(0x1c)
MSP430 Assembler PC v4.2.1 Sat Jan 28 11:33:39 2017

Tools Copyright (c) 2003-2013 Texas Instruments Incorporated
C:\Users\mauricio\AppData\Local\Temp\0410010                         PAGE   13

     660                    .global VES2
     661                    .common VES2,2,2
     662            $C$DW$71        .dwtag  DW_TAG_variable, DW_AT_name("VES2")
     663                    .dwattr $C$DW$71, DW_AT_TI_symbol_name("VES2")
     664                    .dwattr $C$DW$71, DW_AT_location[DW_OP_addr VES2]
     665                    .dwattr $C$DW$71, DW_AT_type(*$C$DW$T$11)
     666                    .dwattr $C$DW$71, DW_AT_external
     667                    .dwattr $C$DW$71, DW_AT_decl_file("../dummyload.c")
     668                    .dwattr $C$DW$71, DW_AT_decl_line(0x06)
     669                    .dwattr $C$DW$71, DW_AT_decl_column(0x21)
     670                    .global VES3
     671                    .common VES3,2,2
     672            $C$DW$72        .dwtag  DW_TAG_variable, DW_AT_name("VES3")
     673                    .dwattr $C$DW$72, DW_AT_TI_symbol_name("VES3")
     674                    .dwattr $C$DW$72, DW_AT_location[DW_OP_addr VES3]
     675                    .dwattr $C$DW$72, DW_AT_type(*$C$DW$T$11)
     676                    .dwattr $C$DW$72, DW_AT_external
     677                    .dwattr $C$DW$72, DW_AT_decl_file("../dummyload.c")
     678                    .dwattr $C$DW$72, DW_AT_decl_line(0x06)
     679                    .dwattr $C$DW$72, DW_AT_decl_column(0x26)
     680                    .global VES4
     681                    .common VES4,2,2
     682            $C$DW$73        .dwtag  DW_TAG_variable, DW_AT_name("VES4")
     683                    .dwattr $C$DW$73, DW_AT_TI_symbol_name("VES4")
     684                    .dwattr $C$DW$73, DW_AT_location[DW_OP_addr VES4]
     685                    .dwattr $C$DW$73, DW_AT_type(*$C$DW$T$11)
     686                    .dwattr $C$DW$73, DW_AT_external
     687                    .dwattr $C$DW$73, DW_AT_decl_file("../dummyload.c")
     688                    .dwattr $C$DW$73, DW_AT_decl_line(0x06)
     689                    .dwattr $C$DW$73, DW_AT_decl_column(0x2b)
     690                    .global Vout
     691 00000e               .data
     692                    .align  2
     693                    .elfsym Vout,SYM_SIZE(2)
     694 00000e       Vout:
     695 00000e 0064          .bits   100,16                  ; Vout @ 0
     696            
     697            $C$DW$74        .dwtag  DW_TAG_variable, DW_AT_name("Vout")
     698                    .dwattr $C$DW$74, DW_AT_TI_symbol_name("Vout")
     699                    .dwattr $C$DW$74, DW_AT_location[DW_OP_addr Vout]
     700                    .dwattr $C$DW$74, DW_AT_type(*$C$DW$T$11)
     701                    .dwattr $C$DW$74, DW_AT_external
     702                    .dwattr $C$DW$74, DW_AT_decl_file("../dummyload.c")
     703                    .dwattr $C$DW$74, DW_AT_decl_line(0x06)
     704                    .dwattr $C$DW$74, DW_AT_decl_column(0x30)
     705                    .global sec_t
     706 000010               .data
     707                    .align  1
     708                    .elfsym sec_t,SYM_SIZE(1)
     709 000010       sec_t:
     710 000010 0000          .bits   0,8                     ; sec_t @ 0
     711            
     712            $C$DW$75        .dwtag  DW_TAG_variable, DW_AT_name("sec_t")
     713                    .dwattr $C$DW$75, DW_AT_TI_symbol_name("sec_t")
     714                    .dwattr $C$DW$75, DW_AT_location[DW_OP_addr sec_t]
MSP430 Assembler PC v4.2.1 Sat Jan 28 11:33:39 2017

Tools Copyright (c) 2003-2013 Texas Instruments Incorporated
C:\Users\mauricio\AppData\Local\Temp\0410010                         PAGE   14

     715                    .dwattr $C$DW$75, DW_AT_type(*$C$DW$T$55)
     716                    .dwattr $C$DW$75, DW_AT_external
     717                    .dwattr $C$DW$75, DW_AT_decl_file("../dummyload.c")
     718                    .dwattr $C$DW$75, DW_AT_decl_line(0x07)
     719                    .dwattr $C$DW$75, DW_AT_decl_column(0x0f)
     720                    .global min_t
     721 000011               .data
     722                    .align  1
     723                    .elfsym min_t,SYM_SIZE(1)
     724 000011       min_t:
     725 000010 0000          .bits   0,8                     ; min_t @ 0
     726            
     727            $C$DW$76        .dwtag  DW_TAG_variable, DW_AT_name("min_t")
     728                    .dwattr $C$DW$76, DW_AT_TI_symbol_name("min_t")
     729                    .dwattr $C$DW$76, DW_AT_location[DW_OP_addr min_t]
     730                    .dwattr $C$DW$76, DW_AT_type(*$C$DW$T$55)
     731                    .dwattr $C$DW$76, DW_AT_external
     732                    .dwattr $C$DW$76, DW_AT_decl_file("../dummyload.c")
     733                    .dwattr $C$DW$76, DW_AT_decl_line(0x07)
     734                    .dwattr $C$DW$76, DW_AT_decl_column(0x17)
     735                    .global hour_t
     736 000012               .data
     737                    .align  1
     738                    .elfsym hour_t,SYM_SIZE(1)
     739 000012       hour_t:
     740 000012 0000          .bits   0,8                     ; hour_t @ 0
     741            
     742            $C$DW$77        .dwtag  DW_TAG_variable, DW_AT_name("hour_t")
     743                    .dwattr $C$DW$77, DW_AT_TI_symbol_name("hour_t")
     744                    .dwattr $C$DW$77, DW_AT_location[DW_OP_addr hour_t]
     745                    .dwattr $C$DW$77, DW_AT_type(*$C$DW$T$55)
     746                    .dwattr $C$DW$77, DW_AT_external
     747                    .dwattr $C$DW$77, DW_AT_decl_file("../dummyload.c")
     748                    .dwattr $C$DW$77, DW_AT_decl_line(0x07)
     749                    .dwattr $C$DW$77, DW_AT_decl_column(0x1f)
     750                    .global day_t
     751 000013               .data
     752                    .align  1
     753                    .elfsym day_t,SYM_SIZE(1)
     754 000013       day_t:
     755 000012 0000          .bits   0,8                     ; day_t @ 0
     756            
     757            $C$DW$78        .dwtag  DW_TAG_variable, DW_AT_name("day_t")
     758                    .dwattr $C$DW$78, DW_AT_TI_symbol_name("day_t")
     759                    .dwattr $C$DW$78, DW_AT_location[DW_OP_addr day_t]
     760                    .dwattr $C$DW$78, DW_AT_type(*$C$DW$T$55)
     761                    .dwattr $C$DW$78, DW_AT_external
     762                    .dwattr $C$DW$78, DW_AT_decl_file("../dummyload.c")
     763                    .dwattr $C$DW$78, DW_AT_decl_line(0x07)
     764                    .dwattr $C$DW$78, DW_AT_decl_column(0x28)
     765                    .global I_I
     766 000014               .data
     767                    .align  1
     768                    .elfsym I_I,SYM_SIZE(1)
     769 000014       I_I:
MSP430 Assembler PC v4.2.1 Sat Jan 28 11:33:39 2017

Tools Copyright (c) 2003-2013 Texas Instruments Incorporated
C:\Users\mauricio\AppData\Local\Temp\0410010                         PAGE   15

     770 000014 0000          .bits   0,8                     ; I_I @ 0
     771            
     772            $C$DW$79        .dwtag  DW_TAG_variable, DW_AT_name("I_I")
     773                    .dwattr $C$DW$79, DW_AT_TI_symbol_name("I_I")
     774                    .dwattr $C$DW$79, DW_AT_location[DW_OP_addr I_I]
     775                    .dwattr $C$DW$79, DW_AT_type(*$C$DW$T$55)
     776                    .dwattr $C$DW$79, DW_AT_external
     777                    .dwattr $C$DW$79, DW_AT_decl_file("../dummyload.c")
     778                    .dwattr $C$DW$79, DW_AT_decl_line(0x07)
     779                    .dwattr $C$DW$79, DW_AT_decl_column(0x30)
     780                    .global SerOK
     781 000015               .data
     782                    .align  1
     783                    .elfsym SerOK,SYM_SIZE(1)
     784 000015       SerOK:
     785 000014 0000          .bits   0,8                     ; SerOK @ 0
     786            
     787            $C$DW$80        .dwtag  DW_TAG_variable, DW_AT_name("SerOK")
     788                    .dwattr $C$DW$80, DW_AT_TI_symbol_name("SerOK")
     789                    .dwattr $C$DW$80, DW_AT_location[DW_OP_addr SerOK]
     790                    .dwattr $C$DW$80, DW_AT_type(*$C$DW$T$55)
     791                    .dwattr $C$DW$80, DW_AT_external
     792                    .dwattr $C$DW$80, DW_AT_decl_file("../dummyload.c")
     793                    .dwattr $C$DW$80, DW_AT_decl_line(0x07)
     794                    .dwattr $C$DW$80, DW_AT_decl_column(0x36)
     795                    .global side_t
     796 000016               .data
     797                    .align  1
     798                    .elfsym side_t,SYM_SIZE(1)
     799 000016       side_t:
     800 000016 0030          .bits   48,8                    ; side_t @ 0
     801            
     802            $C$DW$81        .dwtag  DW_TAG_variable, DW_AT_name("side_t")
     803                    .dwattr $C$DW$81, DW_AT_TI_symbol_name("side_t")
     804                    .dwattr $C$DW$81, DW_AT_location[DW_OP_addr side_t]
     805                    .dwattr $C$DW$81, DW_AT_type(*$C$DW$T$55)
     806                    .dwattr $C$DW$81, DW_AT_external
     807                    .dwattr $C$DW$81, DW_AT_decl_file("../dummyload.c")
     808                    .dwattr $C$DW$81, DW_AT_decl_line(0x07)
     809                    .dwattr $C$DW$81, DW_AT_decl_column(0x3e)
     810                    .global G_IRA
     811 000017               .data
     812                    .align  1
     813                    .elfsym G_IRA,SYM_SIZE(1)
     814 000017       G_IRA:
     815 000016 3030          .bits   48,8                    ; G_IRA @ 0
     816            
     817            $C$DW$82        .dwtag  DW_TAG_variable, DW_AT_name("G_IRA")
     818                    .dwattr $C$DW$82, DW_AT_TI_symbol_name("G_IRA")
     819                    .dwattr $C$DW$82, DW_AT_location[DW_OP_addr G_IRA]
     820                    .dwattr $C$DW$82, DW_AT_type(*$C$DW$T$55)
     821                    .dwattr $C$DW$82, DW_AT_external
     822                    .dwattr $C$DW$82, DW_AT_decl_file("../dummyload.c")
     823                    .dwattr $C$DW$82, DW_AT_decl_line(0x07)
     824                    .dwattr $C$DW$82, DW_AT_decl_column(0x49)
MSP430 Assembler PC v4.2.1 Sat Jan 28 11:33:39 2017

Tools Copyright (c) 2003-2013 Texas Instruments Incorporated
C:\Users\mauricio\AppData\Local\Temp\0410010                         PAGE   16

     825                    .global Estado
     826 000000               .sect   ".data:Estado", RW
     827                    .clink
     828                    .align  2
     829                    .elfsym Estado,SYM_SIZE(6)
     830 000000       Estado:
     831 000000 0050          .bits   80,8                    ; Estado[0] @ 0
     832 000000 4D50          .bits   77,8                    ; Estado[1] @ 8
     833 000002 0050          .bits   80,8                    ; Estado[2] @ 16
     834 000002 5550          .bits   85,8                    ; Estado[3] @ 24
     835 000004 0050          .bits   80,8                    ; Estado[4] @ 32
     836            
     837            $C$DW$83        .dwtag  DW_TAG_variable, DW_AT_name("Estado")
     838                    .dwattr $C$DW$83, DW_AT_TI_symbol_name("Estado")
     839                    .dwattr $C$DW$83, DW_AT_location[DW_OP_addr Estado]
     840                    .dwattr $C$DW$83, DW_AT_type(*$C$DW$T$56)
     841                    .dwattr $C$DW$83, DW_AT_external
     842                    .dwattr $C$DW$83, DW_AT_decl_file("../dummyload.c")
     843                    .dwattr $C$DW$83, DW_AT_decl_line(0x09)
     844                    .dwattr $C$DW$83, DW_AT_decl_column(0x06)
     845                    .global I_pos
     846 000018               .data
     847                    .align  1
     848                    .elfsym I_pos,SYM_SIZE(1)
     849 000018       I_pos:
     850 000018 0000          .bits   0,8                     ; I_pos @ 0
     851            
     852            $C$DW$84        .dwtag  DW_TAG_variable, DW_AT_name("I_pos")
     853                    .dwattr $C$DW$84, DW_AT_TI_symbol_name("I_pos")
     854                    .dwattr $C$DW$84, DW_AT_location[DW_OP_addr I_pos]
     855                    .dwattr $C$DW$84, DW_AT_type(*$C$DW$T$6)
     856                    .dwattr $C$DW$84, DW_AT_external
     857                    .dwattr $C$DW$84, DW_AT_decl_file("../dummyload.c")
     858                    .dwattr $C$DW$84, DW_AT_decl_line(0x0a)
     859                    .dwattr $C$DW$84, DW_AT_decl_column(0x06)
     860                    .global key_p1
     861 000019               .data
     862                    .align  1
     863                    .elfsym key_p1,SYM_SIZE(1)
     864 000019       key_p1:
     865 000018 5000          .bits   80,8                    ; key_p1 @ 0
     866            
     867            $C$DW$85        .dwtag  DW_TAG_variable, DW_AT_name("key_p1")
     868                    .dwattr $C$DW$85, DW_AT_TI_symbol_name("key_p1")
     869                    .dwattr $C$DW$85, DW_AT_location[DW_OP_addr key_p1]
     870                    .dwattr $C$DW$85, DW_AT_type(*$C$DW$T$6)
     871                    .dwattr $C$DW$85, DW_AT_external
     872                    .dwattr $C$DW$85, DW_AT_decl_file("../dummyload.c")
     873                    .dwattr $C$DW$85, DW_AT_decl_line(0x0a)
     874                    .dwattr $C$DW$85, DW_AT_decl_column(0x0f)
     875                    .global time_b
     876 00001a               .data
     877                    .align  2
     878                    .elfsym time_b,SYM_SIZE(2)
     879 00001a       time_b:
MSP430 Assembler PC v4.2.1 Sat Jan 28 11:33:39 2017

Tools Copyright (c) 2003-2013 Texas Instruments Incorporated
C:\Users\mauricio\AppData\Local\Temp\0410010                         PAGE   17

     880 00001a 0000          .bits   0,16                    ; time_b @ 0
     881            
     882            $C$DW$86        .dwtag  DW_TAG_variable, DW_AT_name("time_b")
     883                    .dwattr $C$DW$86, DW_AT_TI_symbol_name("time_b")
     884                    .dwattr $C$DW$86, DW_AT_location[DW_OP_addr time_b]
     885                    .dwattr $C$DW$86, DW_AT_type(*$C$DW$T$11)
     886                    .dwattr $C$DW$86, DW_AT_external
     887                    .dwattr $C$DW$86, DW_AT_decl_file("../dummyload.c")
     888                    .dwattr $C$DW$86, DW_AT_decl_line(0x0b)
     889                    .dwattr $C$DW$86, DW_AT_decl_column(0x0e)
     890                    .global v_sel
     891 00001c               .data
     892                    .align  2
     893                    .elfsym v_sel,SYM_SIZE(2)
     894 00001c       v_sel:
     895 00001c 0000          .bits   0,16                    ; v_sel @ 0
     896            
     897            $C$DW$87        .dwtag  DW_TAG_variable, DW_AT_name("v_sel")
     898                    .dwattr $C$DW$87, DW_AT_TI_symbol_name("v_sel")
     899                    .dwattr $C$DW$87, DW_AT_location[DW_OP_addr v_sel]
     900                    .dwattr $C$DW$87, DW_AT_type(*$C$DW$T$11)
     901                    .dwattr $C$DW$87, DW_AT_external
     902                    .dwattr $C$DW$87, DW_AT_decl_file("../dummyload.c")
     903                    .dwattr $C$DW$87, DW_AT_decl_line(0x0b)
     904                    .dwattr $C$DW$87, DW_AT_decl_column(0x17)
     905                    .global Vbat
     906 00001e               .data
     907                    .align  2
     908                    .elfsym Vbat,SYM_SIZE(2)
     909 00001e       Vbat:
     910 00001e 0000          .bits   0,16                    ; Vbat @ 0
     911            
     912            $C$DW$88        .dwtag  DW_TAG_variable, DW_AT_name("Vbat")
     913                    .dwattr $C$DW$88, DW_AT_TI_symbol_name("Vbat")
     914                    .dwattr $C$DW$88, DW_AT_location[DW_OP_addr Vbat]
     915                    .dwattr $C$DW$88, DW_AT_type(*$C$DW$T$11)
     916                    .dwattr $C$DW$88, DW_AT_external
     917                    .dwattr $C$DW$88, DW_AT_decl_file("../dummyload.c")
     918                    .dwattr $C$DW$88, DW_AT_decl_line(0x0c)
     919                    .dwattr $C$DW$88, DW_AT_decl_column(0x0e)
     920            ;       C:\ti\ccsv5\tools\compiler\msp430_4.2.1\bin\opt430.exe C:\\Users\\mauricio\\AppData\\Local\\Te
     921 000000               .sect   ".text:enviardato"
     922                    .align  2
     923                    .clink
     924                    .global enviardato
     925            
     926            $C$DW$89        .dwtag  DW_TAG_subprogram, DW_AT_name("enviardato")
     927                    .dwattr $C$DW$89, DW_AT_low_pc(enviardato)
     928                    .dwattr $C$DW$89, DW_AT_high_pc(0x00)
     929                    .dwattr $C$DW$89, DW_AT_TI_symbol_name("enviardato")
     930                    .dwattr $C$DW$89, DW_AT_external
     931                    .dwattr $C$DW$89, DW_AT_TI_begin_file("..\CDC.h")
     932                    .dwattr $C$DW$89, DW_AT_TI_begin_line(0x35)
     933                    .dwattr $C$DW$89, DW_AT_TI_begin_column(0x06)
     934                    .dwattr $C$DW$89, DW_AT_decl_file("..\CDC.h")
MSP430 Assembler PC v4.2.1 Sat Jan 28 11:33:39 2017

Tools Copyright (c) 2003-2013 Texas Instruments Incorporated
C:\Users\mauricio\AppData\Local\Temp\0410010                         PAGE   18

     935                    .dwattr $C$DW$89, DW_AT_decl_line(0x35)
     936                    .dwattr $C$DW$89, DW_AT_decl_column(0x06)
     937                    .dwattr $C$DW$89, DW_AT_TI_max_frame_size(0x02)
     938                    .dwpsn  file "..\CDC.h",line 53,column 27,is_stmt,address enviardato,isa 0
     939            
     940                    .dwfde $C$DW$CIE, enviardato
     941            $C$DW$90        .dwtag  DW_TAG_formal_parameter, DW_AT_name("dato")
     942                    .dwattr $C$DW$90, DW_AT_TI_symbol_name("dato")
     943                    .dwattr $C$DW$90, DW_AT_type(*$C$DW$T$6)
     944                    .dwattr $C$DW$90, DW_AT_location[DW_OP_reg12]
     945            
     946            ;*****************************************************************************
     947            ;* FUNCTION NAME: enviardato                                                 *
     948            ;*                                                                           *
     949            ;*   Regs Modified     : SP,SR                                               *
     950            ;*   Regs Used         : SP,SR,r12                                           *
     951            ;*   Local Frame Size  : 0 Args + 0 Auto + 0 Save = 0 byte                   *
     952            ;*****************************************************************************
     953 000000       enviardato:
     954            ;* --------------------------------------------------------------------------*
     955                    .dwcfi  cfa_offset, 2
     956                    .dwcfi  save_reg_to_mem, 16, -2
     957            ;* r12   assigned to dato
     958            $C$DW$91        .dwtag  DW_TAG_variable, DW_AT_name("dato")
     959                    .dwattr $C$DW$91, DW_AT_TI_symbol_name("dato")
     960                    .dwattr $C$DW$91, DW_AT_type(*$C$DW$T$6)
     961                    .dwattr $C$DW$91, DW_AT_location[DW_OP_reg12]
     962                    .dwpsn  file "..\CDC.h",line 53,column 28,is_stmt,isa 0
     963 000000 4CC2          MOV.B     r12,&UCA0TXBUF+0      ; [] |53| 
         000002 0000!
     964            ;* --------------------------------------------------------------------------*
     965            ;*   BEGIN LOOP $C$L1
     966            ;*
     967            ;*   Loop source line                : 53
     968            ;*   Loop closing brace source line  : 53
     969            ;*   Known Minimum Trip Count        : 1
     970            ;*   Known Maximum Trip Count        : 4294967295
     971            ;*   Known Max Trip Count Factor     : 1
     972            ;* --------------------------------------------------------------------------*
     973 000004       $C$L1:    
     974                    .dwpsn  file "..\CDC.h",line 53,column 52,is_stmt,isa 0
     975 000004 B3E2          BIT.B     #2,&IFG2+0            ; [] |53| 
         000006 0000!
     976 000008 27FD          JEQ       $C$L1                 ; [] |53| 
     977                                                      ; [] |53| 
     978            ;* --------------------------------------------------------------------------*
     979                    .dwpsn  file "..\CDC.h",line 53,column 71,is_stmt,isa 0
     980            $C$DW$92        .dwtag  DW_TAG_TI_branch
     981                    .dwattr $C$DW$92, DW_AT_low_pc(0x00)
     982                    .dwattr $C$DW$92, DW_AT_TI_return
     983 00000a 4130          RET       ; [] 
     984                    ; [] 
     985                    .dwattr $C$DW$89, DW_AT_TI_end_file("..\CDC.h")
     986                    .dwattr $C$DW$89, DW_AT_TI_end_line(0x35)
     987                    .dwattr $C$DW$89, DW_AT_TI_end_column(0x47)
MSP430 Assembler PC v4.2.1 Sat Jan 28 11:33:39 2017

Tools Copyright (c) 2003-2013 Texas Instruments Incorporated
C:\Users\mauricio\AppData\Local\Temp\0410010                         PAGE   19

     988                    .dwendentry
     989                    .dwendtag $C$DW$89
     990            
     991 000000               .sect   ".text:string2int"
     992                    .align  2
     993                    .clink
     994                    .global string2int
     995            
     996            $C$DW$93        .dwtag  DW_TAG_subprogram, DW_AT_name("string2int")
     997                    .dwattr $C$DW$93, DW_AT_low_pc(string2int)
     998                    .dwattr $C$DW$93, DW_AT_high_pc(0x00)
     999                    .dwattr $C$DW$93, DW_AT_TI_symbol_name("string2int")
    1000                    .dwattr $C$DW$93, DW_AT_external
    1001                    .dwattr $C$DW$93, DW_AT_type(*$C$DW$T$10)
    1002                    .dwattr $C$DW$93, DW_AT_TI_begin_file("..\CDC.h")
    1003                    .dwattr $C$DW$93, DW_AT_TI_begin_line(0x37)
    1004                    .dwattr $C$DW$93, DW_AT_TI_begin_column(0x05)
    1005                    .dwattr $C$DW$93, DW_AT_decl_file("..\CDC.h")
    1006                    .dwattr $C$DW$93, DW_AT_decl_line(0x37)
    1007                    .dwattr $C$DW$93, DW_AT_decl_column(0x05)
    1008                    .dwattr $C$DW$93, DW_AT_TI_max_frame_size(0x02)
    1009                    .dwpsn  file "..\CDC.h",line 56,column 1,is_stmt,address string2int,isa 0
    1010            
    1011                    .dwfde $C$DW$CIE, string2int
    1012            $C$DW$94        .dwtag  DW_TAG_formal_parameter, DW_AT_name("iamstring")
    1013                    .dwattr $C$DW$94, DW_AT_TI_symbol_name("iamstring")
    1014                    .dwattr $C$DW$94, DW_AT_type(*$C$DW$T$6)
    1015                    .dwattr $C$DW$94, DW_AT_location[DW_OP_reg12]
    1016            
    1017            ;*****************************************************************************
    1018            ;* FUNCTION NAME: string2int                                                 *
    1019            ;*                                                                           *
    1020            ;*   Regs Modified     : SP,SR,r12                                           *
    1021            ;*   Regs Used         : SP,SR,r12                                           *
    1022            ;*   Local Frame Size  : 0 Args + 0 Auto + 0 Save = 0 byte                   *
    1023            ;*****************************************************************************
    1024 000000       string2int:
    1025            ;* --------------------------------------------------------------------------*
    1026                    .dwcfi  cfa_offset, 2
    1027                    .dwcfi  save_reg_to_mem, 16, -2
    1028            ;* r12   assigned to iamstring
    1029            $C$DW$95        .dwtag  DW_TAG_variable, DW_AT_name("iamstring")
    1030                    .dwattr $C$DW$95, DW_AT_TI_symbol_name("iamstring")
    1031                    .dwattr $C$DW$95, DW_AT_type(*$C$DW$T$6)
    1032                    .dwattr $C$DW$95, DW_AT_location[DW_OP_reg12]
    1033                    .dwpsn  file "..\CDC.h",line 57,column 21,is_stmt,isa 0
    1034 000000 4C4C          MOV.B     r12,r12               ; [] |57| 
    1035 000002 803C          SUB.W     #48,r12               ; [] |57| 
         000004 0030 
    1036                    .dwpsn  file "..\CDC.h",line 59,column 2,is_stmt,isa 0
    1037                    .dwpsn  file "..\CDC.h",line 60,column 1,is_stmt,isa 0
    1038            $C$DW$96        .dwtag  DW_TAG_TI_branch
    1039                    .dwattr $C$DW$96, DW_AT_low_pc(0x00)
    1040                    .dwattr $C$DW$96, DW_AT_TI_return
    1041 000006 4130          RET       ; [] 
MSP430 Assembler PC v4.2.1 Sat Jan 28 11:33:39 2017

Tools Copyright (c) 2003-2013 Texas Instruments Incorporated
C:\Users\mauricio\AppData\Local\Temp\0410010                         PAGE   20

    1042                    ; [] 
    1043                    .dwattr $C$DW$93, DW_AT_TI_end_file("..\CDC.h")
    1044                    .dwattr $C$DW$93, DW_AT_TI_end_line(0x3c)
    1045                    .dwattr $C$DW$93, DW_AT_TI_end_column(0x01)
    1046                    .dwendentry
    1047                    .dwendtag $C$DW$93
    1048            
    1049 000000               .sect   ".text:readint"
    1050                    .align  2
    1051                    .clink
    1052                    .global readint
    1053            
    1054            $C$DW$97        .dwtag  DW_TAG_subprogram, DW_AT_name("readint")
    1055                    .dwattr $C$DW$97, DW_AT_low_pc(readint)
    1056                    .dwattr $C$DW$97, DW_AT_high_pc(0x00)
    1057                    .dwattr $C$DW$97, DW_AT_TI_symbol_name("readint")
    1058                    .dwattr $C$DW$97, DW_AT_external
    1059                    .dwattr $C$DW$97, DW_AT_TI_begin_file("..\CDC.h")
    1060                    .dwattr $C$DW$97, DW_AT_TI_begin_line(0x3e)
    1061                    .dwattr $C$DW$97, DW_AT_TI_begin_column(0x06)
    1062                    .dwattr $C$DW$97, DW_AT_decl_file("..\CDC.h")
    1063                    .dwattr $C$DW$97, DW_AT_decl_line(0x3e)
    1064                    .dwattr $C$DW$97, DW_AT_decl_column(0x06)
    1065                    .dwattr $C$DW$97, DW_AT_TI_max_frame_size(0x02)
    1066                    .dwpsn  file "..\CDC.h",line 62,column 34,is_stmt,address readint,isa 0
    1067            
    1068                    .dwfde $C$DW$CIE, readint
    1069            $C$DW$98        .dwtag  DW_TAG_formal_parameter, DW_AT_name("dataSR")
    1070                    .dwattr $C$DW$98, DW_AT_TI_symbol_name("dataSR")
    1071                    .dwattr $C$DW$98, DW_AT_type(*$C$DW$T$11)
    1072                    .dwattr $C$DW$98, DW_AT_location[DW_OP_reg12]
    1073            
    1074            ;*****************************************************************************
    1075            ;* FUNCTION NAME: readint                                                    *
    1076            ;*                                                                           *
    1077            ;*   Regs Modified     : SP,SR,r12,r13,r14,r15                               *
    1078            ;*   Regs Used         : SP,SR,r12,r13,r14,r15                               *
    1079            ;*   Local Frame Size  : 0 Args + 0 Auto + 0 Save = 0 byte                   *
    1080            ;*****************************************************************************
    1081 000000       readint:
    1082            ;* --------------------------------------------------------------------------*
    1083                    .dwcfi  cfa_offset, 2
    1084                    .dwcfi  save_reg_to_mem, 16, -2
    1085            ;* r15   assigned to dataSR
    1086            $C$DW$99        .dwtag  DW_TAG_variable, DW_AT_name("dataSR")
    1087                    .dwattr $C$DW$99, DW_AT_TI_symbol_name("dataSR")
    1088                    .dwattr $C$DW$99, DW_AT_type(*$C$DW$T$11)
    1089                    .dwattr $C$DW$99, DW_AT_location[DW_OP_reg15]
    1090 000000 4C0F          MOV.W     r12,r15               ; [] |62| 
    1091                    .dwpsn  file "..\CDC.h",line 62,column 36,is_stmt,isa 0
    1092 000002 90F2          CMP.B     #5,&iSR+0             ; [] |62| 
         000004 0005 
         000006 0000!
    1093 000008 240E          JEQ       $C$L2                 ; [] |62| 
    1094                                                      ; [] |62| 
MSP430 Assembler PC v4.2.1 Sat Jan 28 11:33:39 2017

Tools Copyright (c) 2003-2013 Texas Instruments Incorporated
C:\Users\mauricio\AppData\Local\Temp\0410010                         PAGE   21

    1095            ;* --------------------------------------------------------------------------*
    1096                    .dwpsn  file "..\CDC.h",line 62,column 127,is_stmt,isa 0
    1097 00000a 421C          MOV.W     &dataSR1+0,r12        ; [] |62| 
         00000c 0000!
    1098 00000e 403D          MOV.W     #10,r13               ; [] |62| 
         000010 000A 
    1099            $C$DW$100       .dwtag  DW_TAG_TI_branch
    1100                    .dwattr $C$DW$100, DW_AT_low_pc(0x00)
    1101                    .dwattr $C$DW$100, DW_AT_name("__mspabi_mpyi")
    1102                    .dwattr $C$DW$100, DW_AT_TI_call
    1103 000012 12B0          CALL      #__mspabi_mpyi        ; [] |62| 
         000014 0000!
    1104                                                      ; [] |62| 
    1105 000016 5F0C          ADD.W     r15,r12               ; [] |62| 
    1106 000018 803C          SUB.W     #48,r12               ; [] |62| 
         00001a 0030 
    1107 00001c 4C82          MOV.W     r12,&dataSR1+0        ; [] |62| 
         00001e 0000!
    1108                    .dwpsn  file "..\CDC.h",line 62,column 161,is_stmt,isa 0
    1109 000020 53D2          ADD.B     #1,&iSR+0             ; [] |62| 
         000022 0000!
    1110 000024 3C0F          JMP       $C$L3                 ; [] |62| 
    1111                                                      ; [] |62| 
    1112            ;* --------------------------------------------------------------------------*
    1113 000026       $C$L2:    
    1114                    .dwpsn  file "..\CDC.h",line 62,column 47,is_stmt,isa 0
    1115 000026 43C2          MOV.B     #0,&iSR+0             ; [] |62| 
         000028 0000!
    1116                    .dwpsn  file "..\CDC.h",line 62,column 55,is_stmt,isa 0
    1117 00002a 4292          MOV.W     &dataSR1+0,&dataSR2+0 ; [] |62| 
         00002c 0000!
         00002e 0000!
    1118                    .dwpsn  file "..\CDC.h",line 62,column 71,is_stmt,isa 0
    1119 000030 4292          MOV.W     &dataSR2+0,&TA0CCR0+0 ; [] |62| 
         000032 0000!
         000034 0000!
    1120                    .dwpsn  file "..\CDC.h",line 62,column 84,is_stmt,isa 0
    1121 000036 4382          MOV.W     #0,&dataSR1+0         ; [] |62| 
         000038 0000!
    1122                    .dwpsn  file "..\CDC.h",line 62,column 94,is_stmt,isa 0
    1123 00003a D0B2          OR.W      #16,&TA0CCTL0+0       ; [] |62| 
         00003c 0010 
         00003e 0000!
    1124                    .dwpsn  file "..\CDC.h",line 62,column 109,is_stmt,isa 0
    1125 000040 D3A2          OR.W      #2,&TA0CTL+0          ; [] |62| 
         000042 0000!
    1126            ;* --------------------------------------------------------------------------*
    1127 000044       $C$L3:    
    1128                    .dwpsn  file "..\CDC.h",line 62,column 168,is_stmt,isa 0
    1129            $C$DW$101       .dwtag  DW_TAG_TI_branch
    1130                    .dwattr $C$DW$101, DW_AT_low_pc(0x00)
    1131                    .dwattr $C$DW$101, DW_AT_TI_return
    1132 000044 4130          RET       ; [] 
    1133                    ; [] 
    1134                    .dwattr $C$DW$97, DW_AT_TI_end_file("..\CDC.h")
MSP430 Assembler PC v4.2.1 Sat Jan 28 11:33:39 2017

Tools Copyright (c) 2003-2013 Texas Instruments Incorporated
C:\Users\mauricio\AppData\Local\Temp\0410010                         PAGE   22

    1135                    .dwattr $C$DW$97, DW_AT_TI_end_line(0x3e)
    1136                    .dwattr $C$DW$97, DW_AT_TI_end_column(0xa8)
    1137                    .dwendentry
    1138                    .dwendtag $C$DW$97
    1139            
    1140 000000               .sect   ".text:ec"
    1141                    .align  2
    1142                    .clink
    1143                    .global ec
    1144            
    1145            $C$DW$102       .dwtag  DW_TAG_subprogram, DW_AT_name("ec")
    1146                    .dwattr $C$DW$102, DW_AT_low_pc(ec)
    1147                    .dwattr $C$DW$102, DW_AT_high_pc(0x00)
    1148                    .dwattr $C$DW$102, DW_AT_TI_symbol_name("ec")
    1149                    .dwattr $C$DW$102, DW_AT_external
    1150                    .dwattr $C$DW$102, DW_AT_TI_begin_file("..\CDC.h")
    1151                    .dwattr $C$DW$102, DW_AT_TI_begin_line(0x42)
    1152                    .dwattr $C$DW$102, DW_AT_TI_begin_column(0x06)
    1153                    .dwattr $C$DW$102, DW_AT_decl_file("..\CDC.h")
    1154                    .dwattr $C$DW$102, DW_AT_decl_line(0x42)
    1155                    .dwattr $C$DW$102, DW_AT_decl_column(0x06)
    1156                    .dwattr $C$DW$102, DW_AT_TI_max_frame_size(0x02)
    1157                    .dwpsn  file "..\CDC.h",line 67,column 1,is_stmt,address ec,isa 0
    1158            
    1159                    .dwfde $C$DW$CIE, ec
    1160            $C$DW$103       .dwtag  DW_TAG_formal_parameter, DW_AT_name("cadena")
    1161                    .dwattr $C$DW$103, DW_AT_TI_symbol_name("cadena")
    1162                    .dwattr $C$DW$103, DW_AT_type(*$C$DW$T$26)
    1163                    .dwattr $C$DW$103, DW_AT_location[DW_OP_reg12]
    1164            
    1165            ;*****************************************************************************
    1166            ;* FUNCTION NAME: ec                                                         *
    1167            ;*                                                                           *
    1168            ;*   Regs Modified     : SP,SR,r12,r15                                       *
    1169            ;*   Regs Used         : SP,SR,r12,r15                                       *
    1170            ;*   Local Frame Size  : 0 Args + 0 Auto + 0 Save = 0 byte                   *
    1171            ;*****************************************************************************
    1172 000000       ec:
    1173            ;* --------------------------------------------------------------------------*
    1174                    .dwcfi  cfa_offset, 2
    1175                    .dwcfi  save_reg_to_mem, 16, -2
    1176            ;* r12   assigned to cadena
    1177            $C$DW$104       .dwtag  DW_TAG_variable, DW_AT_name("cadena")
    1178                    .dwattr $C$DW$104, DW_AT_TI_symbol_name("cadena")
    1179                    .dwattr $C$DW$104, DW_AT_type(*$C$DW$T$26)
    1180                    .dwattr $C$DW$104, DW_AT_location[DW_OP_reg12]
    1181            ;* r15   assigned to c
    1182            $C$DW$105       .dwtag  DW_TAG_variable, DW_AT_name("c")
    1183                    .dwattr $C$DW$105, DW_AT_TI_symbol_name("c")
    1184                    .dwattr $C$DW$105, DW_AT_type(*$C$DW$T$26)
    1185                    .dwattr $C$DW$105, DW_AT_location[DW_OP_reg15]
    1186                    .dwpsn  file "..\CDC.h",line 69,column 2,is_stmt,isa 0
    1187 000000 4C0F          MOV.W     r12,r15               ; [] |69| 
    1188                    .dwpsn  file "..\CDC.h",line 70,column 2,is_stmt,isa 0
    1189 000002 3C04          JMP       $C$L5                 ; [] |70| 
MSP430 Assembler PC v4.2.1 Sat Jan 28 11:33:39 2017

Tools Copyright (c) 2003-2013 Texas Instruments Incorporated
C:\Users\mauricio\AppData\Local\Temp\0410010                         PAGE   23

    1190                                                      ; [] |70| 
    1191            ;* --------------------------------------------------------------------------*
    1192 000004       $C$L4:    
    1193                    .dwpsn  file "..\CDC.h",line 72,column 3,is_stmt,isa 0
    1194 000004 4F6C          MOV.B     @r15,r12              ; [] |72| 
    1195            $C$DW$106       .dwtag  DW_TAG_TI_branch
    1196                    .dwattr $C$DW$106, DW_AT_low_pc(0x00)
    1197                    .dwattr $C$DW$106, DW_AT_name("enviardato")
    1198                    .dwattr $C$DW$106, DW_AT_TI_call
    1199 000006 12B0          CALL      #enviardato           ; [] |72| 
         000008 0000!
    1200                                                      ; [] |72| 
    1201                    .dwpsn  file "..\CDC.h",line 73,column 3,is_stmt,isa 0
    1202 00000a 531F          ADD.W     #1,r15                ; [] |73| 
    1203            ;* --------------------------------------------------------------------------*
    1204            ;*   BEGIN LOOP $C$L5
    1205            ;* --------------------------------------------------------------------------*
    1206 00000c       $C$L5:    
    1207                    .dwpsn  file "..\CDC.h",line 70,column 9,is_stmt,isa 0
    1208 00000c 930F          TST.W     r15                   ; [] |70| 
    1209 00000e 2403          JEQ       $C$L6                 ; [] |70| 
    1210                                                      ; [] |70| 
    1211            ;* --------------------------------------------------------------------------*
    1212 000010 93CF          TST.B     0(r15)                ; [] |70| 
         000012 0000 
    1213 000014 23F7          JNE       $C$L4                 ; [] |70| 
    1214                                                      ; [] |70| 
    1215            ;* --------------------------------------------------------------------------*
    1216 000016       $C$L6:    
    1217                    .dwpsn  file "..\CDC.h",line 75,column 1,is_stmt,isa 0
    1218            $C$DW$107       .dwtag  DW_TAG_TI_branch
    1219                    .dwattr $C$DW$107, DW_AT_low_pc(0x00)
    1220                    .dwattr $C$DW$107, DW_AT_TI_return
    1221 000016 4130          RET       ; [] 
    1222                    ; [] 
    1223                    .dwattr $C$DW$102, DW_AT_TI_end_file("..\CDC.h")
    1224                    .dwattr $C$DW$102, DW_AT_TI_end_line(0x4b)
    1225                    .dwattr $C$DW$102, DW_AT_TI_end_column(0x01)
    1226                    .dwendentry
    1227                    .dwendtag $C$DW$102
    1228            
    1229 000000               .sect   ".text:twoc2dec"
    1230                    .align  2
    1231                    .clink
    1232                    .global twoc2dec
    1233            
    1234            $C$DW$108       .dwtag  DW_TAG_subprogram, DW_AT_name("twoc2dec")
    1235                    .dwattr $C$DW$108, DW_AT_low_pc(twoc2dec)
    1236                    .dwattr $C$DW$108, DW_AT_high_pc(0x00)
    1237                    .dwattr $C$DW$108, DW_AT_TI_symbol_name("twoc2dec")
    1238                    .dwattr $C$DW$108, DW_AT_external
    1239                    .dwattr $C$DW$108, DW_AT_type(*$C$DW$T$10)
    1240                    .dwattr $C$DW$108, DW_AT_TI_begin_file("..\CDC.h")
    1241                    .dwattr $C$DW$108, DW_AT_TI_begin_line(0x4c)
    1242                    .dwattr $C$DW$108, DW_AT_TI_begin_column(0x05)
MSP430 Assembler PC v4.2.1 Sat Jan 28 11:33:39 2017

Tools Copyright (c) 2003-2013 Texas Instruments Incorporated
C:\Users\mauricio\AppData\Local\Temp\0410010                         PAGE   24

    1243                    .dwattr $C$DW$108, DW_AT_decl_file("..\CDC.h")
    1244                    .dwattr $C$DW$108, DW_AT_decl_line(0x4c)
    1245                    .dwattr $C$DW$108, DW_AT_decl_column(0x05)
    1246                    .dwattr $C$DW$108, DW_AT_TI_max_frame_size(0x02)
    1247                    .dwpsn  file "..\CDC.h",line 77,column 3,is_stmt,address twoc2dec,isa 0
    1248            
    1249                    .dwfde $C$DW$CIE, twoc2dec
    1250            $C$DW$109       .dwtag  DW_TAG_formal_parameter, DW_AT_name("twoc")
    1251                    .dwattr $C$DW$109, DW_AT_TI_symbol_name("twoc")
    1252                    .dwattr $C$DW$109, DW_AT_type(*$C$DW$T$11)
    1253                    .dwattr $C$DW$109, DW_AT_location[DW_OP_reg12]
    1254            
    1255            ;*****************************************************************************
    1256            ;* FUNCTION NAME: twoc2dec                                                   *
    1257            ;*                                                                           *
    1258            ;*   Regs Modified     : SP,SR,r12                                           *
    1259            ;*   Regs Used         : SP,SR,r12                                           *
    1260            ;*   Local Frame Size  : 0 Args + 0 Auto + 0 Save = 0 byte                   *
    1261            ;*****************************************************************************
    1262 000000       twoc2dec:
    1263            ;* --------------------------------------------------------------------------*
    1264                    .dwcfi  cfa_offset, 2
    1265                    .dwcfi  save_reg_to_mem, 16, -2
    1266            ;* r12   assigned to twoc
    1267            $C$DW$110       .dwtag  DW_TAG_variable, DW_AT_name("twoc")
    1268                    .dwattr $C$DW$110, DW_AT_TI_symbol_name("twoc")
    1269                    .dwattr $C$DW$110, DW_AT_type(*$C$DW$T$11)
    1270                    .dwattr $C$DW$110, DW_AT_location[DW_OP_reg12]
    1271                    .dwpsn  file "..\CDC.h",line 78,column 4,is_stmt,isa 0
    1272 000000 40F2          MOV.B     #43,&signo+0          ; [] |78| 
         000002 002B 
         000004 0000!
    1273                    .dwpsn  file "..\CDC.h",line 79,column 4,is_stmt,isa 0
    1274 000006 930C          TST.W     r12                   ; [] |79| 
    1275 000008 3405          JGE       $C$L7                 ; [] |79| 
    1276                                                      ; [] |79| 
    1277            ;* --------------------------------------------------------------------------*
    1278                    .dwpsn  file "..\CDC.h",line 81,column 4,is_stmt,isa 0
    1279 00000a E33C          INV.W     r12                   ; [] |81| 
    1280 00000c 531C          ADD.W     #1,r12                ; [] |81| 
    1281                    .dwpsn  file "..\CDC.h",line 82,column 4,is_stmt,isa 0
    1282 00000e 40F2          MOV.B     #45,&signo+0          ; [] |82| 
         000010 002D 
         000012 0000!
    1283            ;* --------------------------------------------------------------------------*
    1284 000014       $C$L7:    
    1285                    .dwpsn  file "..\CDC.h",line 84,column 4,is_stmt,isa 0
    1286                    .dwpsn  file "..\CDC.h",line 85,column 3,is_stmt,isa 0
    1287            $C$DW$111       .dwtag  DW_TAG_TI_branch
    1288                    .dwattr $C$DW$111, DW_AT_low_pc(0x00)
    1289                    .dwattr $C$DW$111, DW_AT_TI_return
    1290 000014 4130          RET       ; [] 
    1291                    ; [] 
    1292                    .dwattr $C$DW$108, DW_AT_TI_end_file("..\CDC.h")
    1293                    .dwattr $C$DW$108, DW_AT_TI_end_line(0x55)
MSP430 Assembler PC v4.2.1 Sat Jan 28 11:33:39 2017

Tools Copyright (c) 2003-2013 Texas Instruments Incorporated
C:\Users\mauricio\AppData\Local\Temp\0410010                         PAGE   25

    1294                    .dwattr $C$DW$108, DW_AT_TI_end_column(0x03)
    1295                    .dwendentry
    1296                    .dwendtag $C$DW$108
    1297            
    1298 000000               .sect   ".text:c2ui"
    1299                    .align  2
    1300                    .clink
    1301                    .global c2ui
    1302            
    1303            $C$DW$112       .dwtag  DW_TAG_subprogram, DW_AT_name("c2ui")
    1304                    .dwattr $C$DW$112, DW_AT_low_pc(c2ui)
    1305                    .dwattr $C$DW$112, DW_AT_high_pc(0x00)
    1306                    .dwattr $C$DW$112, DW_AT_TI_symbol_name("c2ui")
    1307                    .dwattr $C$DW$112, DW_AT_external
    1308                    .dwattr $C$DW$112, DW_AT_type(*$C$DW$T$11)
    1309                    .dwattr $C$DW$112, DW_AT_TI_begin_file("..\CDC.h")
    1310                    .dwattr $C$DW$112, DW_AT_TI_begin_line(0x58)
    1311                    .dwattr $C$DW$112, DW_AT_TI_begin_column(0x0e)
    1312                    .dwattr $C$DW$112, DW_AT_decl_file("..\CDC.h")
    1313                    .dwattr $C$DW$112, DW_AT_decl_line(0x58)
    1314                    .dwattr $C$DW$112, DW_AT_decl_column(0x0e)
    1315                    .dwattr $C$DW$112, DW_AT_TI_max_frame_size(0x02)
    1316                    .dwpsn  file "..\CDC.h",line 88,column 31,is_stmt,address c2ui,isa 0
    1317            
    1318                    .dwfde $C$DW$CIE, c2ui
    1319            $C$DW$113       .dwtag  DW_TAG_formal_parameter, DW_AT_name("c2uc")
    1320                    .dwattr $C$DW$113, DW_AT_TI_symbol_name("c2uc")
    1321                    .dwattr $C$DW$113, DW_AT_type(*$C$DW$T$26)
    1322                    .dwattr $C$DW$113, DW_AT_location[DW_OP_reg12]
    1323            
    1324            ;*****************************************************************************
    1325            ;* FUNCTION NAME: c2ui                                                       *
    1326            ;*                                                                           *
    1327            ;*   Regs Modified     : SP,SR,r11,r12,r13,r14,r15                           *
    1328            ;*   Regs Used         : SP,SR,r11,r12,r13,r14,r15                           *
    1329            ;*   Local Frame Size  : 0 Args + 0 Auto + 0 Save = 0 byte                   *
    1330            ;*****************************************************************************
    1331 000000       c2ui:
    1332            ;* --------------------------------------------------------------------------*
    1333                    .dwcfi  cfa_offset, 2
    1334                    .dwcfi  save_reg_to_mem, 16, -2
    1335            ;* r12   assigned to c2uc
    1336            $C$DW$114       .dwtag  DW_TAG_variable, DW_AT_name("c2uc")
    1337                    .dwattr $C$DW$114, DW_AT_TI_symbol_name("c2uc")
    1338                    .dwattr $C$DW$114, DW_AT_type(*$C$DW$T$26)
    1339                    .dwattr $C$DW$114, DW_AT_location[DW_OP_reg12]
    1340            ;* r11   assigned to c2ucp
    1341            $C$DW$115       .dwtag  DW_TAG_variable, DW_AT_name("c2ucp")
    1342                    .dwattr $C$DW$115, DW_AT_TI_symbol_name("c2ucp")
    1343                    .dwattr $C$DW$115, DW_AT_type(*$C$DW$T$26)
    1344                    .dwattr $C$DW$115, DW_AT_location[DW_OP_reg11]
    1345            ;* r12   assigned to iamres
    1346            $C$DW$116       .dwtag  DW_TAG_variable, DW_AT_name("iamres")
    1347                    .dwattr $C$DW$116, DW_AT_TI_symbol_name("iamres")
    1348                    .dwattr $C$DW$116, DW_AT_type(*$C$DW$T$11)
MSP430 Assembler PC v4.2.1 Sat Jan 28 11:33:39 2017

Tools Copyright (c) 2003-2013 Texas Instruments Incorporated
C:\Users\mauricio\AppData\Local\Temp\0410010                         PAGE   26

    1349                    .dwattr $C$DW$116, DW_AT_location[DW_OP_reg12]
    1350                    .dwpsn  file "..\CDC.h",line 90,column 2,is_stmt,isa 0
    1351 000000 4C0B          MOV.W     r12,r11               ; [] |90| 
    1352                    .dwpsn  file "..\CDC.h",line 91,column 21,is_stmt,isa 0
    1353 000002 430C          MOV.W     #0,r12                ; [] |91| 
    1354                    .dwpsn  file "..\CDC.h",line 93,column 2,is_stmt,isa 0
    1355 000004 3C09          JMP       $C$L9                 ; [] |93| 
    1356                                                      ; [] |93| 
    1357            ;* --------------------------------------------------------------------------*
    1358 000006       $C$L8:    
    1359                    .dwpsn  file "..\CDC.h",line 94,column 3,is_stmt,isa 0
    1360 000006 403D          MOV.W     #10,r13               ; [] |94| 
         000008 000A 
    1361            $C$DW$117       .dwtag  DW_TAG_TI_branch
    1362                    .dwattr $C$DW$117, DW_AT_low_pc(0x00)
    1363                    .dwattr $C$DW$117, DW_AT_name("__mspabi_mpyi")
    1364                    .dwattr $C$DW$117, DW_AT_TI_call
    1365 00000a 12B0          CALL      #__mspabi_mpyi        ; [] |94| 
         00000c 0000!
    1366                                                      ; [] |94| 
    1367 00000e 4B6F          MOV.B     @r11,r15              ; [] |94| 
    1368 000010 5F0C          ADD.W     r15,r12               ; [] |94| 
    1369 000012 803C          SUB.W     #48,r12               ; [] |94| 
         000014 0030 
    1370                    .dwpsn  file "..\CDC.h",line 95,column 3,is_stmt,isa 0
    1371 000016 531B          ADD.W     #1,r11                ; [] |95| 
    1372            ;* --------------------------------------------------------------------------*
    1373            ;*   BEGIN LOOP $C$L9
    1374            ;* --------------------------------------------------------------------------*
    1375 000018       $C$L9:    
    1376                    .dwpsn  file "..\CDC.h",line 93,column 8,is_stmt,isa 0
    1377 000018 93CB          TST.B     0(r11)                ; [] |93| 
         00001a 0000 
    1378 00001c 2406          JEQ       $C$L10                ; [] |93| 
    1379                                                      ; [] |93| 
    1380            ;* --------------------------------------------------------------------------*
    1381 00001e 930B          TST.W     r11                   ; [] |93| 
    1382 000020 2404          JEQ       $C$L10                ; [] |93| 
    1383                                                      ; [] |93| 
    1384            ;* --------------------------------------------------------------------------*
    1385 000022 403F          MOV.W     #13,r15               ; [] |93| 
         000024 000D 
    1386 000026 9B6F          CMP.B     @r11,r15              ; [] |93| 
    1387 000028 23EE          JNE       $C$L8                 ; [] |93| 
    1388                                                      ; [] |93| 
    1389            ;* --------------------------------------------------------------------------*
    1390 00002a       $C$L10:    
    1391                    .dwpsn  file "..\CDC.h",line 97,column 2,is_stmt,isa 0
    1392                    .dwpsn  file "..\CDC.h",line 98,column 1,is_stmt,isa 0
    1393            $C$DW$118       .dwtag  DW_TAG_TI_branch
    1394                    .dwattr $C$DW$118, DW_AT_low_pc(0x00)
    1395                    .dwattr $C$DW$118, DW_AT_TI_return
    1396 00002a 4130          RET       ; [] 
    1397                    ; [] 
    1398                    .dwattr $C$DW$112, DW_AT_TI_end_file("..\CDC.h")
MSP430 Assembler PC v4.2.1 Sat Jan 28 11:33:39 2017

Tools Copyright (c) 2003-2013 Texas Instruments Incorporated
C:\Users\mauricio\AppData\Local\Temp\0410010                         PAGE   27

    1399                    .dwattr $C$DW$112, DW_AT_TI_end_line(0x62)
    1400                    .dwattr $C$DW$112, DW_AT_TI_end_column(0x01)
    1401                    .dwendentry
    1402                    .dwendtag $C$DW$112
    1403            
    1404 000000               .sect   ".text:s_pc"
    1405                    .align  2
    1406                    .clink
    1407                    .global s_pc
    1408            
    1409            $C$DW$119       .dwtag  DW_TAG_subprogram, DW_AT_name("s_pc")
    1410                    .dwattr $C$DW$119, DW_AT_low_pc(s_pc)
    1411                    .dwattr $C$DW$119, DW_AT_high_pc(0x00)
    1412                    .dwattr $C$DW$119, DW_AT_TI_symbol_name("s_pc")
    1413                    .dwattr $C$DW$119, DW_AT_external
    1414                    .dwattr $C$DW$119, DW_AT_TI_begin_file("..\CDC.h")
    1415                    .dwattr $C$DW$119, DW_AT_TI_begin_line(0x64)
    1416                    .dwattr $C$DW$119, DW_AT_TI_begin_column(0x06)
    1417                    .dwattr $C$DW$119, DW_AT_decl_file("..\CDC.h")
    1418                    .dwattr $C$DW$119, DW_AT_decl_line(0x64)
    1419                    .dwattr $C$DW$119, DW_AT_decl_column(0x06)
    1420                    .dwattr $C$DW$119, DW_AT_TI_max_frame_size(0x02)
    1421                    .dwpsn  file "..\CDC.h",line 100,column 12,is_stmt,address s_pc,isa 0
    1422            
    1423                    .dwfde $C$DW$CIE, s_pc
    1424            
    1425            ;*****************************************************************************
    1426            ;* FUNCTION NAME: s_pc                                                       *
    1427            ;*                                                                           *
    1428            ;*   Regs Modified     : SP,SR,r12                                           *
    1429            ;*   Regs Used         : SP,SR,r12                                           *
    1430            ;*   Local Frame Size  : 0 Args + 0 Auto + 0 Save = 0 byte                   *
    1431            ;*****************************************************************************
    1432 000000       s_pc:
    1433            ;* --------------------------------------------------------------------------*
    1434                    .dwcfi  cfa_offset, 2
    1435                    .dwcfi  save_reg_to_mem, 16, -2
    1436                    .dwpsn  file "..\CDC.h",line 100,column 13,is_stmt,isa 0
    1437 000000 407C          MOV.B     #32,r12               ; [] |100| 
         000002 0020 
    1438            $C$DW$120       .dwtag  DW_TAG_TI_branch
    1439                    .dwattr $C$DW$120, DW_AT_low_pc(0x00)
    1440                    .dwattr $C$DW$120, DW_AT_name("enviardato")
    1441                    .dwattr $C$DW$120, DW_AT_TI_call
    1442 000004 12B0          CALL      #enviardato           ; [] |100| 
         000006 0000!
    1443                                                      ; [] |100| 
    1444                    .dwpsn  file "..\CDC.h",line 100,column 29,is_stmt,isa 0
    1445            $C$DW$121       .dwtag  DW_TAG_TI_branch
    1446                    .dwattr $C$DW$121, DW_AT_low_pc(0x00)
    1447                    .dwattr $C$DW$121, DW_AT_TI_return
    1448 000008 4130          RET       ; [] 
    1449                    ; [] 
    1450                    .dwattr $C$DW$119, DW_AT_TI_end_file("..\CDC.h")
    1451                    .dwattr $C$DW$119, DW_AT_TI_end_line(0x64)
MSP430 Assembler PC v4.2.1 Sat Jan 28 11:33:39 2017

Tools Copyright (c) 2003-2013 Texas Instruments Incorporated
C:\Users\mauricio\AppData\Local\Temp\0410010                         PAGE   28

    1452                    .dwattr $C$DW$119, DW_AT_TI_end_column(0x1d)
    1453                    .dwendentry
    1454                    .dwendtag $C$DW$119
    1455            
    1456 000000               .sect   ".text:printlong"
    1457                    .align  2
    1458                    .clink
    1459                    .global printlong
    1460            
    1461            $C$DW$122       .dwtag  DW_TAG_subprogram, DW_AT_name("printlong")
    1462                    .dwattr $C$DW$122, DW_AT_low_pc(printlong)
    1463                    .dwattr $C$DW$122, DW_AT_high_pc(0x00)
    1464                    .dwattr $C$DW$122, DW_AT_TI_symbol_name("printlong")
    1465                    .dwattr $C$DW$122, DW_AT_external
    1466                    .dwattr $C$DW$122, DW_AT_TI_begin_file("..\CDC.h")
    1467                    .dwattr $C$DW$122, DW_AT_TI_begin_line(0x66)
    1468                    .dwattr $C$DW$122, DW_AT_TI_begin_column(0x06)
    1469                    .dwattr $C$DW$122, DW_AT_decl_file("..\CDC.h")
    1470                    .dwattr $C$DW$122, DW_AT_decl_line(0x66)
    1471                    .dwattr $C$DW$122, DW_AT_decl_column(0x06)
    1472                    .dwattr $C$DW$122, DW_AT_TI_max_frame_size(0x06)
    1473                    .dwpsn  file "..\CDC.h",line 103,column 1,is_stmt,address printlong,isa 0
    1474            
    1475                    .dwfde $C$DW$CIE, printlong
    1476            $C$DW$123       .dwtag  DW_TAG_formal_parameter, DW_AT_name("longtochar")
    1477                    .dwattr $C$DW$123, DW_AT_TI_symbol_name("longtochar")
    1478                    .dwattr $C$DW$123, DW_AT_type(*$C$DW$T$13)
    1479                    .dwattr $C$DW$123, DW_AT_location[DW_OP_reg12 DW_OP_piece 2 DW_OP_reg13 DW_OP_piece 2]
    1480            
    1481            ;*****************************************************************************
    1482            ;* FUNCTION NAME: printlong                                                  *
    1483            ;*                                                                           *
    1484            ;*   Regs Modified     : SP,SR,r9,r10,r11,r12,r13,r14,r15                    *
    1485            ;*   Regs Used         : SP,SR,r9,r10,r11,r12,r13,r14,r15                    *
    1486            ;*   Local Frame Size  : 0 Args + 0 Auto + 4 Save = 4 byte                   *
    1487            ;*****************************************************************************
    1488 000000       printlong:
    1489            ;* --------------------------------------------------------------------------*
    1490                    .dwcfi  cfa_offset, 2
    1491                    .dwcfi  save_reg_to_mem, 16, -2
    1492 000000 120A          PUSH.W    r10                   ; [] 
    1493                    .dwcfi  cfa_offset, 4
    1494                    .dwcfi  save_reg_to_mem, 10, -4
    1495 000002 1209          PUSH.W    r9                    ; [] 
    1496                    .dwcfi  cfa_offset, 6
    1497                    .dwcfi  save_reg_to_mem, 9, -6
    1498            ;* r9    assigned to longtochar
    1499            $C$DW$124       .dwtag  DW_TAG_variable, DW_AT_name("longtochar")
    1500                    .dwattr $C$DW$124, DW_AT_TI_symbol_name("longtochar")
    1501                    .dwattr $C$DW$124, DW_AT_type(*$C$DW$T$13)
    1502                    .dwattr $C$DW$124, DW_AT_location[DW_OP_reg9 DW_OP_piece 2 DW_OP_reg10 DW_OP_piece 2]
    1503 000004 4C09          MOV.W     r12,r9                ; [] |103| 
    1504 000006 4D0A          MOV.W     r13,r10               ; [] |103| 
    1505                    .dwpsn  file "..\CDC.h",line 104,column 2,is_stmt,isa 0
    1506 000008 403E          MOV.W     #57600,r14            ; [] |104| 
MSP430 Assembler PC v4.2.1 Sat Jan 28 11:33:39 2017

Tools Copyright (c) 2003-2013 Texas Instruments Incorporated
C:\Users\mauricio\AppData\Local\Temp\0410010                         PAGE   29

         00000a E100 
    1507 00000c 403F          MOV.W     #1525,r15             ; [] |104| 
         00000e 05F5 
    1508            $C$DW$125       .dwtag  DW_TAG_TI_branch
    1509                    .dwattr $C$DW$125, DW_AT_low_pc(0x00)
    1510                    .dwattr $C$DW$125, DW_AT_name("__mspabi_divul")
    1511                    .dwattr $C$DW$125, DW_AT_TI_call
    1512 000010 12B0          CALL      #__mspabi_divul       ; [] |104| 
         000012 0000!
    1513                                                      ; [] |104| 
    1514 000014 4C82          MOV.W     r12,&cM+0             ; [] |104| 
         000016 0000!
    1515 000018 4D82          MOV.W     r13,&cM+2             ; [] |104| 
         00001a 0002!
    1516                    .dwpsn  file "..\CDC.h",line 105,column 2,is_stmt,isa 0
    1517 00001c 421C          MOV.W     &cM+0,r12             ; [] |105| 
         00001e 0000!
    1518 000020 403E          MOV.W     #57600,r14            ; [] |105| 
         000022 E100 
    1519 000024 403F          MOV.W     #1525,r15             ; [] |105| 
         000026 05F5 
    1520            $C$DW$126       .dwtag  DW_TAG_TI_branch
    1521                    .dwattr $C$DW$126, DW_AT_low_pc(0x00)
    1522                    .dwattr $C$DW$126, DW_AT_name("__mspabi_mpyl")
    1523                    .dwattr $C$DW$126, DW_AT_TI_call
    1524 000028 12B0          CALL      #__mspabi_mpyl        ; [] |105| 
         00002a 0000!
    1525                                                      ; [] |105| 
    1526 00002c 490E          MOV.W     r9,r14                ; [] |105| 
    1527 00002e 4A0F          MOV.W     r10,r15               ; [] |105| 
    1528 000030 8C0E          SUB.W     r12,r14               ; [] |105| 
    1529 000032 7D0F          SUBC.W    r13,r15               ; [] |105| 
    1530 000034 4E0C          MOV.W     r14,r12               ; [] |105| 
    1531 000036 4F0D          MOV.W     r15,r13               ; [] |105| 
    1532 000038 403E          MOV.W     #38528,r14            ; [] |105| 
         00003a 9680 
    1533 00003c 403F          MOV.W     #152,r15              ; [] |105| 
         00003e 0098 
    1534            $C$DW$127       .dwtag  DW_TAG_TI_branch
    1535                    .dwattr $C$DW$127, DW_AT_low_pc(0x00)
    1536                    .dwattr $C$DW$127, DW_AT_name("__mspabi_divul")
    1537                    .dwattr $C$DW$127, DW_AT_TI_call
    1538 000040 12B0          CALL      #__mspabi_divul       ; [] |105| 
         000042 0000!
    1539                                                      ; [] |105| 
    1540 000044 4C82          MOV.W     r12,&dM+0             ; [] |105| 
         000046 0000!
    1541 000048 4D82          MOV.W     r13,&dM+2             ; [] |105| 
         00004a 0002!
    1542                    .dwpsn  file "..\CDC.h",line 106,column 2,is_stmt,isa 0
    1543 00004c 421C          MOV.W     &cM+0,r12             ; [] |106| 
         00004e 0000!
    1544 000050 421D          MOV.W     &cM+2,r13             ; [] |106| 
         000052 0002!
    1545 000054 403E          MOV.W     #10,r14               ; [] |106| 
MSP430 Assembler PC v4.2.1 Sat Jan 28 11:33:39 2017

Tools Copyright (c) 2003-2013 Texas Instruments Incorporated
C:\Users\mauricio\AppData\Local\Temp\0410010                         PAGE   30

         000056 000A 
    1546 000058 430F          MOV.W     #0,r15                ; [] |106| 
    1547            $C$DW$128       .dwtag  DW_TAG_TI_branch
    1548                    .dwattr $C$DW$128, DW_AT_low_pc(0x00)
    1549                    .dwattr $C$DW$128, DW_AT_name("__mspabi_mpyl")
    1550                    .dwattr $C$DW$128, DW_AT_TI_call
    1551 00005a 12B0          CALL      #__mspabi_mpyl        ; [] |106| 
         00005c 0000!
    1552                                                      ; [] |106| 
    1553 00005e 521C          ADD.W     &dM+0,r12             ; [] |106| 
         000060 0000!
    1554 000062 621D          ADDC.W    &dM+2,r13             ; [] |106| 
         000064 0002!
    1555 000066 403E          MOV.W     #38528,r14            ; [] |106| 
         000068 9680 
    1556 00006a 403F          MOV.W     #152,r15              ; [] |106| 
         00006c 0098 
    1557            $C$DW$129       .dwtag  DW_TAG_TI_branch
    1558                    .dwattr $C$DW$129, DW_AT_low_pc(0x00)
    1559                    .dwattr $C$DW$129, DW_AT_name("__mspabi_mpyl")
    1560                    .dwattr $C$DW$129, DW_AT_TI_call
    1561 00006e 12B0          CALL      #__mspabi_mpyl        ; [] |106| 
         000070 0000!
    1562                                                      ; [] |106| 
    1563 000072 490E          MOV.W     r9,r14                ; [] |106| 
    1564 000074 4A0F          MOV.W     r10,r15               ; [] |106| 
    1565 000076 8C0E          SUB.W     r12,r14               ; [] |106| 
    1566 000078 7D0F          SUBC.W    r13,r15               ; [] |106| 
    1567 00007a 4E0C          MOV.W     r14,r12               ; [] |106| 
    1568 00007c 4F0D          MOV.W     r15,r13               ; [] |106| 
    1569 00007e 403E          MOV.W     #16960,r14            ; [] |106| 
         000080 4240 
    1570 000082 403F          MOV.W     #15,r15               ; [] |106| 
         000084 000F 
    1571            $C$DW$130       .dwtag  DW_TAG_TI_branch
    1572                    .dwattr $C$DW$130, DW_AT_low_pc(0x00)
    1573                    .dwattr $C$DW$130, DW_AT_name("__mspabi_divul")
    1574                    .dwattr $C$DW$130, DW_AT_TI_call
    1575 000086 12B0          CALL      #__mspabi_divul       ; [] |106| 
         000088 0000!
    1576                                                      ; [] |106| 
    1577 00008a 4C82          MOV.W     r12,&uM+0             ; [] |106| 
         00008c 0000!
    1578 00008e 4D82          MOV.W     r13,&uM+2             ; [] |106| 
         000090 0002!
    1579                    .dwpsn  file "..\CDC.h",line 107,column 2,is_stmt,isa 0
    1580 000092 421C          MOV.W     &cM+0,r12             ; [] |107| 
         000094 0000!
    1581 000096 421D          MOV.W     &cM+2,r13             ; [] |107| 
         000098 0002!
    1582 00009a 403E          MOV.W     #10,r14               ; [] |107| 
         00009c 000A 
    1583 00009e 430F          MOV.W     #0,r15                ; [] |107| 
    1584            $C$DW$131       .dwtag  DW_TAG_TI_branch
    1585                    .dwattr $C$DW$131, DW_AT_low_pc(0x00)
MSP430 Assembler PC v4.2.1 Sat Jan 28 11:33:39 2017

Tools Copyright (c) 2003-2013 Texas Instruments Incorporated
C:\Users\mauricio\AppData\Local\Temp\0410010                         PAGE   31

    1586                    .dwattr $C$DW$131, DW_AT_name("__mspabi_mpyl")
    1587                    .dwattr $C$DW$131, DW_AT_TI_call
    1588 0000a0 12B0          CALL      #__mspabi_mpyl        ; [] |107| 
         0000a2 0000!
    1589                                                      ; [] |107| 
    1590 0000a4 521C          ADD.W     &dM+0,r12             ; [] |107| 
         0000a6 0000!
    1591 0000a8 621D          ADDC.W    &dM+2,r13             ; [] |107| 
         0000aa 0002!
    1592 0000ac 403E          MOV.W     #10,r14               ; [] |107| 
         0000ae 000A 
    1593 0000b0 430F          MOV.W     #0,r15                ; [] |107| 
    1594            $C$DW$132       .dwtag  DW_TAG_TI_branch
    1595                    .dwattr $C$DW$132, DW_AT_low_pc(0x00)
    1596                    .dwattr $C$DW$132, DW_AT_name("__mspabi_mpyl")
    1597                    .dwattr $C$DW$132, DW_AT_TI_call
    1598 0000b2 12B0          CALL      #__mspabi_mpyl        ; [] |107| 
         0000b4 0000!
    1599                                                      ; [] |107| 
    1600 0000b6 521C          ADD.W     &uM+0,r12             ; [] |107| 
         0000b8 0000!
    1601 0000ba 621D          ADDC.W    &uM+2,r13             ; [] |107| 
         0000bc 0002!
    1602 0000be 403E          MOV.W     #16960,r14            ; [] |107| 
         0000c0 4240 
    1603 0000c2 403F          MOV.W     #15,r15               ; [] |107| 
         0000c4 000F 
    1604            $C$DW$133       .dwtag  DW_TAG_TI_branch
    1605                    .dwattr $C$DW$133, DW_AT_low_pc(0x00)
    1606                    .dwattr $C$DW$133, DW_AT_name("__mspabi_mpyl")
    1607                    .dwattr $C$DW$133, DW_AT_TI_call
    1608 0000c6 12B0          CALL      #__mspabi_mpyl        ; [] |107| 
         0000c8 0000!
    1609                                                      ; [] |107| 
    1610 0000ca 490E          MOV.W     r9,r14                ; [] |107| 
    1611 0000cc 4A0F          MOV.W     r10,r15               ; [] |107| 
    1612 0000ce 8C0E          SUB.W     r12,r14               ; [] |107| 
    1613 0000d0 7D0F          SUBC.W    r13,r15               ; [] |107| 
    1614 0000d2 4E0C          MOV.W     r14,r12               ; [] |107| 
    1615 0000d4 4F0D          MOV.W     r15,r13               ; [] |107| 
    1616 0000d6 403E          MOV.W     #34464,r14            ; [] |107| 
         0000d8 86A0 
    1617 0000da 431F          MOV.W     #1,r15                ; [] |107| 
    1618            $C$DW$134       .dwtag  DW_TAG_TI_branch
    1619                    .dwattr $C$DW$134, DW_AT_low_pc(0x00)
    1620                    .dwattr $C$DW$134, DW_AT_name("__mspabi_divul")
    1621                    .dwattr $C$DW$134, DW_AT_TI_call
    1622 0000dc 12B0          CALL      #__mspabi_divul       ; [] |107| 
         0000de 0000!
    1623                                                      ; [] |107| 
    1624 0000e0 4C82          MOV.W     r12,&cm+0             ; [] |107| 
         0000e2 0000!
    1625 0000e4 4D82          MOV.W     r13,&cm+2             ; [] |107| 
         0000e6 0002!
    1626                    .dwpsn  file "..\CDC.h",line 108,column 2,is_stmt,isa 0
MSP430 Assembler PC v4.2.1 Sat Jan 28 11:33:39 2017

Tools Copyright (c) 2003-2013 Texas Instruments Incorporated
C:\Users\mauricio\AppData\Local\Temp\0410010                         PAGE   32

    1627 0000e8 421C          MOV.W     &cM+0,r12             ; [] |108| 
         0000ea 0000!
    1628 0000ec 421D          MOV.W     &cM+2,r13             ; [] |108| 
         0000ee 0002!
    1629 0000f0 403E          MOV.W     #10,r14               ; [] |108| 
         0000f2 000A 
    1630 0000f4 430F          MOV.W     #0,r15                ; [] |108| 
    1631            $C$DW$135       .dwtag  DW_TAG_TI_branch
    1632                    .dwattr $C$DW$135, DW_AT_low_pc(0x00)
    1633                    .dwattr $C$DW$135, DW_AT_name("__mspabi_mpyl")
    1634                    .dwattr $C$DW$135, DW_AT_TI_call
    1635 0000f6 12B0          CALL      #__mspabi_mpyl        ; [] |108| 
         0000f8 0000!
    1636                                                      ; [] |108| 
    1637            ;* --------------------------------------------------------------------------*
    1638 0000fa 521C          ADD.W     &dM+0,r12             ; [] |108| 
         0000fc 0000!
    1639 0000fe 621D          ADDC.W    &dM+2,r13             ; [] |108| 
         000100 0002!
    1640 000102 403E          MOV.W     #10,r14               ; [] |108| 
         000104 000A 
    1641 000106 430F          MOV.W     #0,r15                ; [] |108| 
    1642            $C$DW$136       .dwtag  DW_TAG_TI_branch
    1643                    .dwattr $C$DW$136, DW_AT_low_pc(0x00)
    1644                    .dwattr $C$DW$136, DW_AT_name("__mspabi_mpyl")
    1645                    .dwattr $C$DW$136, DW_AT_TI_call
    1646 000108 12B0          CALL      #__mspabi_mpyl        ; [] |108| 
         00010a 0000!
    1647                                                      ; [] |108| 
    1648 00010c 521C          ADD.W     &uM+0,r12             ; [] |108| 
         00010e 0000!
    1649 000110 621D          ADDC.W    &uM+2,r13             ; [] |108| 
         000112 0002!
    1650 000114 403E          MOV.W     #10,r14               ; [] |108| 
         000116 000A 
    1651 000118 430F          MOV.W     #0,r15                ; [] |108| 
    1652            $C$DW$137       .dwtag  DW_TAG_TI_branch
    1653                    .dwattr $C$DW$137, DW_AT_low_pc(0x00)
    1654                    .dwattr $C$DW$137, DW_AT_name("__mspabi_mpyl")
    1655                    .dwattr $C$DW$137, DW_AT_TI_call
    1656 00011a 12B0          CALL      #__mspabi_mpyl        ; [] |108| 
         00011c 0000!
    1657                                                      ; [] |108| 
    1658 00011e 521C          ADD.W     &cm+0,r12             ; [] |108| 
         000120 0000!
    1659 000122 621D          ADDC.W    &cm+2,r13             ; [] |108| 
         000124 0002!
    1660 000126 403E          MOV.W     #34464,r14            ; [] |108| 
         000128 86A0 
    1661 00012a 431F          MOV.W     #1,r15                ; [] |108| 
    1662            $C$DW$138       .dwtag  DW_TAG_TI_branch
    1663                    .dwattr $C$DW$138, DW_AT_low_pc(0x00)
    1664                    .dwattr $C$DW$138, DW_AT_name("__mspabi_mpyl")
    1665                    .dwattr $C$DW$138, DW_AT_TI_call
    1666 00012c 12B0          CALL      #__mspabi_mpyl        ; [] |108| 
MSP430 Assembler PC v4.2.1 Sat Jan 28 11:33:39 2017

Tools Copyright (c) 2003-2013 Texas Instruments Incorporated
C:\Users\mauricio\AppData\Local\Temp\0410010                         PAGE   33

         00012e 0000!
    1667                                                      ; [] |108| 
    1668 000130 490E          MOV.W     r9,r14                ; [] |108| 
    1669 000132 4A0F          MOV.W     r10,r15               ; [] |108| 
    1670 000134 8C0E          SUB.W     r12,r14               ; [] |108| 
    1671 000136 7D0F          SUBC.W    r13,r15               ; [] |108| 
    1672 000138 4E0C          MOV.W     r14,r12               ; [] |108| 
    1673 00013a 4F0D          MOV.W     r15,r13               ; [] |108| 
    1674 00013c 403E          MOV.W     #10000,r14            ; [] |108| 
         00013e 2710 
    1675 000140 430F          MOV.W     #0,r15                ; [] |108| 
    1676            $C$DW$139       .dwtag  DW_TAG_TI_branch
    1677                    .dwattr $C$DW$139, DW_AT_low_pc(0x00)
    1678                    .dwattr $C$DW$139, DW_AT_name("__mspabi_divul")
    1679                    .dwattr $C$DW$139, DW_AT_TI_call
    1680 000142 12B0          CALL      #__mspabi_divul       ; [] |108| 
         000144 0000!
    1681                                                      ; [] |108| 
    1682 000146 4C82          MOV.W     r12,&dm+0             ; [] |108| 
         000148 0000!
    1683 00014a 4D82          MOV.W     r13,&dm+2             ; [] |108| 
         00014c 0002!
    1684                    .dwpsn  file "..\CDC.h",line 109,column 2,is_stmt,isa 0
    1685 00014e 421C          MOV.W     &cM+0,r12             ; [] |109| 
         000150 0000!
    1686 000152 421D          MOV.W     &cM+2,r13             ; [] |109| 
         000154 0002!
    1687 000156 403E          MOV.W     #10,r14               ; [] |109| 
         000158 000A 
    1688 00015a 430F          MOV.W     #0,r15                ; [] |109| 
    1689            $C$DW$140       .dwtag  DW_TAG_TI_branch
    1690                    .dwattr $C$DW$140, DW_AT_low_pc(0x00)
    1691                    .dwattr $C$DW$140, DW_AT_name("__mspabi_mpyl")
    1692                    .dwattr $C$DW$140, DW_AT_TI_call
    1693 00015c 12B0          CALL      #__mspabi_mpyl        ; [] |109| 
         00015e 0000!
    1694                                                      ; [] |109| 
    1695 000160 521C          ADD.W     &dM+0,r12             ; [] |109| 
         000162 0000!
    1696 000164 621D          ADDC.W    &dM+2,r13             ; [] |109| 
         000166 0002!
    1697 000168 403E          MOV.W     #10,r14               ; [] |109| 
         00016a 000A 
    1698 00016c 430F          MOV.W     #0,r15                ; [] |109| 
    1699            $C$DW$141       .dwtag  DW_TAG_TI_branch
    1700                    .dwattr $C$DW$141, DW_AT_low_pc(0x00)
    1701                    .dwattr $C$DW$141, DW_AT_name("__mspabi_mpyl")
    1702                    .dwattr $C$DW$141, DW_AT_TI_call
    1703 00016e 12B0          CALL      #__mspabi_mpyl        ; [] |109| 
         000170 0000!
    1704                                                      ; [] |109| 
    1705 000172 521C          ADD.W     &uM+0,r12             ; [] |109| 
         000174 0000!
    1706 000176 621D          ADDC.W    &uM+2,r13             ; [] |109| 
         000178 0002!
MSP430 Assembler PC v4.2.1 Sat Jan 28 11:33:39 2017

Tools Copyright (c) 2003-2013 Texas Instruments Incorporated
C:\Users\mauricio\AppData\Local\Temp\0410010                         PAGE   34

    1707 00017a 403E          MOV.W     #10,r14               ; [] |109| 
         00017c 000A 
    1708 00017e 430F          MOV.W     #0,r15                ; [] |109| 
    1709            $C$DW$142       .dwtag  DW_TAG_TI_branch
    1710                    .dwattr $C$DW$142, DW_AT_low_pc(0x00)
    1711                    .dwattr $C$DW$142, DW_AT_name("__mspabi_mpyl")
    1712                    .dwattr $C$DW$142, DW_AT_TI_call
    1713 000180 12B0          CALL      #__mspabi_mpyl        ; [] |109| 
         000182 0000!
    1714                                                      ; [] |109| 
    1715 000184 521C          ADD.W     &cm+0,r12             ; [] |109| 
         000186 0000!
    1716 000188 621D          ADDC.W    &cm+2,r13             ; [] |109| 
         00018a 0002!
    1717 00018c 403E          MOV.W     #10,r14               ; [] |109| 
         00018e 000A 
    1718 000190 430F          MOV.W     #0,r15                ; [] |109| 
    1719            $C$DW$143       .dwtag  DW_TAG_TI_branch
    1720                    .dwattr $C$DW$143, DW_AT_low_pc(0x00)
    1721                    .dwattr $C$DW$143, DW_AT_name("__mspabi_mpyl")
    1722                    .dwattr $C$DW$143, DW_AT_TI_call
    1723 000192 12B0          CALL      #__mspabi_mpyl        ; [] |109| 
         000194 0000!
    1724                                                      ; [] |109| 
    1725 000196 521C          ADD.W     &dm+0,r12             ; [] |109| 
         000198 0000!
    1726 00019a 621D          ADDC.W    &dm+2,r13             ; [] |109| 
         00019c 0002!
    1727 00019e 403E          MOV.W     #10000,r14            ; [] |109| 
         0001a0 2710 
    1728 0001a2 430F          MOV.W     #0,r15                ; [] |109| 
    1729            $C$DW$144       .dwtag  DW_TAG_TI_branch
    1730                    .dwattr $C$DW$144, DW_AT_low_pc(0x00)
    1731                    .dwattr $C$DW$144, DW_AT_name("__mspabi_mpyl")
    1732                    .dwattr $C$DW$144, DW_AT_TI_call
    1733 0001a4 12B0          CALL      #__mspabi_mpyl        ; [] |109| 
         0001a6 0000!
    1734                                                      ; [] |109| 
    1735 0001a8 490E          MOV.W     r9,r14                ; [] |109| 
    1736 0001aa 4A0F          MOV.W     r10,r15               ; [] |109| 
    1737 0001ac 8C0E          SUB.W     r12,r14               ; [] |109| 
    1738 0001ae 7D0F          SUBC.W    r13,r15               ; [] |109| 
    1739 0001b0 4E0C          MOV.W     r14,r12               ; [] |109| 
    1740 0001b2 4F0D          MOV.W     r15,r13               ; [] |109| 
    1741 0001b4 403E          MOV.W     #1000,r14             ; [] |109| 
         0001b6 03E8 
    1742 0001b8 430F          MOV.W     #0,r15                ; [] |109| 
    1743            $C$DW$145       .dwtag  DW_TAG_TI_branch
    1744                    .dwattr $C$DW$145, DW_AT_low_pc(0x00)
    1745                    .dwattr $C$DW$145, DW_AT_name("__mspabi_divul")
    1746                    .dwattr $C$DW$145, DW_AT_TI_call
    1747 0001ba 12B0          CALL      #__mspabi_divul       ; [] |109| 
         0001bc 0000!
    1748                                                      ; [] |109| 
    1749 0001be 4C82          MOV.W     r12,&um+0             ; [] |109| 
MSP430 Assembler PC v4.2.1 Sat Jan 28 11:33:39 2017

Tools Copyright (c) 2003-2013 Texas Instruments Incorporated
C:\Users\mauricio\AppData\Local\Temp\0410010                         PAGE   35

         0001c0 0000!
    1750 0001c2 4D82          MOV.W     r13,&um+2             ; [] |109| 
         0001c4 0002!
    1751                    .dwpsn  file "..\CDC.h",line 110,column 2,is_stmt,isa 0
    1752 0001c6 421C          MOV.W     &cM+0,r12             ; [] |110| 
         0001c8 0000!
    1753 0001ca 421D          MOV.W     &cM+2,r13             ; [] |110| 
         0001cc 0002!
    1754 0001ce 403E          MOV.W     #10,r14               ; [] |110| 
         0001d0 000A 
    1755 0001d2 430F          MOV.W     #0,r15                ; [] |110| 
    1756            $C$DW$146       .dwtag  DW_TAG_TI_branch
    1757                    .dwattr $C$DW$146, DW_AT_low_pc(0x00)
    1758                    .dwattr $C$DW$146, DW_AT_name("__mspabi_mpyl")
    1759                    .dwattr $C$DW$146, DW_AT_TI_call
    1760 0001d4 12B0          CALL      #__mspabi_mpyl        ; [] |110| 
         0001d6 0000!
    1761                                                      ; [] |110| 
    1762            ;* --------------------------------------------------------------------------*
    1763 0001d8 521C          ADD.W     &dM+0,r12             ; [] |110| 
         0001da 0000!
    1764 0001dc 621D          ADDC.W    &dM+2,r13             ; [] |110| 
         0001de 0002!
    1765 0001e0 403E          MOV.W     #10,r14               ; [] |110| 
         0001e2 000A 
    1766 0001e4 430F          MOV.W     #0,r15                ; [] |110| 
    1767            $C$DW$147       .dwtag  DW_TAG_TI_branch
    1768                    .dwattr $C$DW$147, DW_AT_low_pc(0x00)
    1769                    .dwattr $C$DW$147, DW_AT_name("__mspabi_mpyl")
    1770                    .dwattr $C$DW$147, DW_AT_TI_call
    1771 0001e6 12B0          CALL      #__mspabi_mpyl        ; [] |110| 
         0001e8 0000!
    1772                                                      ; [] |110| 
    1773 0001ea 521C          ADD.W     &uM+0,r12             ; [] |110| 
         0001ec 0000!
    1774 0001ee 621D          ADDC.W    &uM+2,r13             ; [] |110| 
         0001f0 0002!
    1775 0001f2 403E          MOV.W     #10,r14               ; [] |110| 
         0001f4 000A 
    1776 0001f6 430F          MOV.W     #0,r15                ; [] |110| 
    1777            $C$DW$148       .dwtag  DW_TAG_TI_branch
    1778                    .dwattr $C$DW$148, DW_AT_low_pc(0x00)
    1779                    .dwattr $C$DW$148, DW_AT_name("__mspabi_mpyl")
    1780                    .dwattr $C$DW$148, DW_AT_TI_call
    1781 0001f8 12B0          CALL      #__mspabi_mpyl        ; [] |110| 
         0001fa 0000!
    1782                                                      ; [] |110| 
    1783 0001fc 521C          ADD.W     &cm+0,r12             ; [] |110| 
         0001fe 0000!
    1784 000200 621D          ADDC.W    &cm+2,r13             ; [] |110| 
         000202 0002!
    1785 000204 403E          MOV.W     #10,r14               ; [] |110| 
         000206 000A 
    1786 000208 430F          MOV.W     #0,r15                ; [] |110| 
    1787            $C$DW$149       .dwtag  DW_TAG_TI_branch
MSP430 Assembler PC v4.2.1 Sat Jan 28 11:33:39 2017

Tools Copyright (c) 2003-2013 Texas Instruments Incorporated
C:\Users\mauricio\AppData\Local\Temp\0410010                         PAGE   36

    1788                    .dwattr $C$DW$149, DW_AT_low_pc(0x00)
    1789                    .dwattr $C$DW$149, DW_AT_name("__mspabi_mpyl")
    1790                    .dwattr $C$DW$149, DW_AT_TI_call
    1791 00020a 12B0          CALL      #__mspabi_mpyl        ; [] |110| 
         00020c 0000!
    1792                                                      ; [] |110| 
    1793 00020e 521C          ADD.W     &dm+0,r12             ; [] |110| 
         000210 0000!
    1794 000212 621D          ADDC.W    &dm+2,r13             ; [] |110| 
         000214 0002!
    1795 000216 403E          MOV.W     #10,r14               ; [] |110| 
         000218 000A 
    1796 00021a 430F          MOV.W     #0,r15                ; [] |110| 
    1797            $C$DW$150       .dwtag  DW_TAG_TI_branch
    1798                    .dwattr $C$DW$150, DW_AT_low_pc(0x00)
    1799                    .dwattr $C$DW$150, DW_AT_name("__mspabi_mpyl")
    1800                    .dwattr $C$DW$150, DW_AT_TI_call
    1801 00021c 12B0          CALL      #__mspabi_mpyl        ; [] |110| 
         00021e 0000!
    1802                                                      ; [] |110| 
    1803 000220 521C          ADD.W     &um+0,r12             ; [] |110| 
         000222 0000!
    1804 000224 621D          ADDC.W    &um+2,r13             ; [] |110| 
         000226 0002!
    1805 000228 403E          MOV.W     #1000,r14             ; [] |110| 
         00022a 03E8 
    1806 00022c 430F          MOV.W     #0,r15                ; [] |110| 
    1807            $C$DW$151       .dwtag  DW_TAG_TI_branch
    1808                    .dwattr $C$DW$151, DW_AT_low_pc(0x00)
    1809                    .dwattr $C$DW$151, DW_AT_name("__mspabi_mpyl")
    1810                    .dwattr $C$DW$151, DW_AT_TI_call
    1811 00022e 12B0          CALL      #__mspabi_mpyl        ; [] |110| 
         000230 0000!
    1812                                                      ; [] |110| 
    1813 000232 490E          MOV.W     r9,r14                ; [] |110| 
    1814 000234 4A0F          MOV.W     r10,r15               ; [] |110| 
    1815 000236 8C0E          SUB.W     r12,r14               ; [] |110| 
    1816 000238 7D0F          SUBC.W    r13,r15               ; [] |110| 
    1817 00023a 4E0C          MOV.W     r14,r12               ; [] |110| 
    1818 00023c 4F0D          MOV.W     r15,r13               ; [] |110| 
    1819 00023e 403E          MOV.W     #100,r14              ; [] |110| 
         000240 0064 
    1820 000242 430F          MOV.W     #0,r15                ; [] |110| 
    1821            $C$DW$152       .dwtag  DW_TAG_TI_branch
    1822                    .dwattr $C$DW$152, DW_AT_low_pc(0x00)
    1823                    .dwattr $C$DW$152, DW_AT_name("__mspabi_divul")
    1824                    .dwattr $C$DW$152, DW_AT_TI_call
    1825 000244 12B0          CALL      #__mspabi_divul       ; [] |110| 
         000246 0000!
    1826                                                      ; [] |110| 
    1827 000248 4C82          MOV.W     r12,&c+0              ; [] |110| 
         00024a 0000!
    1828 00024c 4D82          MOV.W     r13,&c+2              ; [] |110| 
         00024e 0002!
    1829                    .dwpsn  file "..\CDC.h",line 111,column 2,is_stmt,isa 0
MSP430 Assembler PC v4.2.1 Sat Jan 28 11:33:39 2017

Tools Copyright (c) 2003-2013 Texas Instruments Incorporated
C:\Users\mauricio\AppData\Local\Temp\0410010                         PAGE   37

    1830 000250 421C          MOV.W     &cM+0,r12             ; [] |111| 
         000252 0000!
    1831 000254 421D          MOV.W     &cM+2,r13             ; [] |111| 
         000256 0002!
    1832 000258 403E          MOV.W     #10,r14               ; [] |111| 
         00025a 000A 
    1833 00025c 430F          MOV.W     #0,r15                ; [] |111| 
    1834            $C$DW$153       .dwtag  DW_TAG_TI_branch
    1835                    .dwattr $C$DW$153, DW_AT_low_pc(0x00)
    1836                    .dwattr $C$DW$153, DW_AT_name("__mspabi_mpyl")
    1837                    .dwattr $C$DW$153, DW_AT_TI_call
    1838 00025e 12B0          CALL      #__mspabi_mpyl        ; [] |111| 
         000260 0000!
    1839                                                      ; [] |111| 
    1840 000262 521C          ADD.W     &dM+0,r12             ; [] |111| 
         000264 0000!
    1841 000266 621D          ADDC.W    &dM+2,r13             ; [] |111| 
         000268 0002!
    1842 00026a 403E          MOV.W     #10,r14               ; [] |111| 
         00026c 000A 
    1843 00026e 430F          MOV.W     #0,r15                ; [] |111| 
    1844            $C$DW$154       .dwtag  DW_TAG_TI_branch
    1845                    .dwattr $C$DW$154, DW_AT_low_pc(0x00)
    1846                    .dwattr $C$DW$154, DW_AT_name("__mspabi_mpyl")
    1847                    .dwattr $C$DW$154, DW_AT_TI_call
    1848 000270 12B0          CALL      #__mspabi_mpyl        ; [] |111| 
         000272 0000!
    1849                                                      ; [] |111| 
    1850 000274 521C          ADD.W     &uM+0,r12             ; [] |111| 
         000276 0000!
    1851 000278 621D          ADDC.W    &uM+2,r13             ; [] |111| 
         00027a 0002!
    1852 00027c 403E          MOV.W     #10,r14               ; [] |111| 
         00027e 000A 
    1853 000280 430F          MOV.W     #0,r15                ; [] |111| 
    1854            $C$DW$155       .dwtag  DW_TAG_TI_branch
    1855                    .dwattr $C$DW$155, DW_AT_low_pc(0x00)
    1856                    .dwattr $C$DW$155, DW_AT_name("__mspabi_mpyl")
    1857                    .dwattr $C$DW$155, DW_AT_TI_call
    1858 000282 12B0          CALL      #__mspabi_mpyl        ; [] |111| 
         000284 0000!
    1859                                                      ; [] |111| 
    1860 000286 521C          ADD.W     &cm+0,r12             ; [] |111| 
         000288 0000!
    1861 00028a 621D          ADDC.W    &cm+2,r13             ; [] |111| 
         00028c 0002!
    1862 00028e 403E          MOV.W     #10,r14               ; [] |111| 
         000290 000A 
    1863 000292 430F          MOV.W     #0,r15                ; [] |111| 
    1864            $C$DW$156       .dwtag  DW_TAG_TI_branch
    1865                    .dwattr $C$DW$156, DW_AT_low_pc(0x00)
    1866                    .dwattr $C$DW$156, DW_AT_name("__mspabi_mpyl")
    1867                    .dwattr $C$DW$156, DW_AT_TI_call
    1868 000294 12B0          CALL      #__mspabi_mpyl        ; [] |111| 
         000296 0000!
MSP430 Assembler PC v4.2.1 Sat Jan 28 11:33:39 2017

Tools Copyright (c) 2003-2013 Texas Instruments Incorporated
C:\Users\mauricio\AppData\Local\Temp\0410010                         PAGE   38

    1869                                                      ; [] |111| 
    1870 000298 521C          ADD.W     &dm+0,r12             ; [] |111| 
         00029a 0000!
    1871 00029c 621D          ADDC.W    &dm+2,r13             ; [] |111| 
         00029e 0002!
    1872 0002a0 403E          MOV.W     #10,r14               ; [] |111| 
         0002a2 000A 
    1873 0002a4 430F          MOV.W     #0,r15                ; [] |111| 
    1874            $C$DW$157       .dwtag  DW_TAG_TI_branch
    1875                    .dwattr $C$DW$157, DW_AT_low_pc(0x00)
    1876                    .dwattr $C$DW$157, DW_AT_name("__mspabi_mpyl")
    1877                    .dwattr $C$DW$157, DW_AT_TI_call
    1878 0002a6 12B0          CALL      #__mspabi_mpyl        ; [] |111| 
         0002a8 0000!
    1879                                                      ; [] |111| 
    1880            ;* --------------------------------------------------------------------------*
    1881 0002aa 521C          ADD.W     &um+0,r12             ; [] |111| 
         0002ac 0000!
    1882 0002ae 621D          ADDC.W    &um+2,r13             ; [] |111| 
         0002b0 0002!
    1883 0002b2 403E          MOV.W     #10,r14               ; [] |111| 
         0002b4 000A 
    1884 0002b6 430F          MOV.W     #0,r15                ; [] |111| 
    1885            $C$DW$158       .dwtag  DW_TAG_TI_branch
    1886                    .dwattr $C$DW$158, DW_AT_low_pc(0x00)
    1887                    .dwattr $C$DW$158, DW_AT_name("__mspabi_mpyl")
    1888                    .dwattr $C$DW$158, DW_AT_TI_call
    1889 0002b8 12B0          CALL      #__mspabi_mpyl        ; [] |111| 
         0002ba 0000!
    1890                                                      ; [] |111| 
    1891 0002bc 521C          ADD.W     &c+0,r12              ; [] |111| 
         0002be 0000!
    1892 0002c0 621D          ADDC.W    &c+2,r13              ; [] |111| 
         0002c2 0002!
    1893 0002c4 403E          MOV.W     #100,r14              ; [] |111| 
         0002c6 0064 
    1894 0002c8 430F          MOV.W     #0,r15                ; [] |111| 
    1895            $C$DW$159       .dwtag  DW_TAG_TI_branch
    1896                    .dwattr $C$DW$159, DW_AT_low_pc(0x00)
    1897                    .dwattr $C$DW$159, DW_AT_name("__mspabi_mpyl")
    1898                    .dwattr $C$DW$159, DW_AT_TI_call
    1899 0002ca 12B0          CALL      #__mspabi_mpyl        ; [] |111| 
         0002cc 0000!
    1900                                                      ; [] |111| 
    1901 0002ce 490E          MOV.W     r9,r14                ; [] |111| 
    1902 0002d0 4A0F          MOV.W     r10,r15               ; [] |111| 
    1903 0002d2 8C0E          SUB.W     r12,r14               ; [] |111| 
    1904 0002d4 7D0F          SUBC.W    r13,r15               ; [] |111| 
    1905 0002d6 4E0C          MOV.W     r14,r12               ; [] |111| 
    1906 0002d8 4F0D          MOV.W     r15,r13               ; [] |111| 
    1907 0002da 403E          MOV.W     #10,r14               ; [] |111| 
         0002dc 000A 
    1908 0002de 430F          MOV.W     #0,r15                ; [] |111| 
    1909            $C$DW$160       .dwtag  DW_TAG_TI_branch
    1910                    .dwattr $C$DW$160, DW_AT_low_pc(0x00)
MSP430 Assembler PC v4.2.1 Sat Jan 28 11:33:39 2017

Tools Copyright (c) 2003-2013 Texas Instruments Incorporated
C:\Users\mauricio\AppData\Local\Temp\0410010                         PAGE   39

    1911                    .dwattr $C$DW$160, DW_AT_name("__mspabi_divul")
    1912                    .dwattr $C$DW$160, DW_AT_TI_call
    1913 0002e0 12B0          CALL      #__mspabi_divul       ; [] |111| 
         0002e2 0000!
    1914                                                      ; [] |111| 
    1915 0002e4 4C82          MOV.W     r12,&d+0              ; [] |111| 
         0002e6 0000!
    1916 0002e8 4D82          MOV.W     r13,&d+2              ; [] |111| 
         0002ea 0002!
    1917                    .dwpsn  file "..\CDC.h",line 112,column 2,is_stmt,isa 0
    1918 0002ec 421C          MOV.W     &cM+0,r12             ; [] |112| 
         0002ee 0000!
    1919 0002f0 421D          MOV.W     &cM+2,r13             ; [] |112| 
         0002f2 0002!
    1920 0002f4 403E          MOV.W     #10,r14               ; [] |112| 
         0002f6 000A 
    1921 0002f8 430F          MOV.W     #0,r15                ; [] |112| 
    1922            $C$DW$161       .dwtag  DW_TAG_TI_branch
    1923                    .dwattr $C$DW$161, DW_AT_low_pc(0x00)
    1924                    .dwattr $C$DW$161, DW_AT_name("__mspabi_mpyl")
    1925                    .dwattr $C$DW$161, DW_AT_TI_call
    1926 0002fa 12B0          CALL      #__mspabi_mpyl        ; [] |112| 
         0002fc 0000!
    1927                                                      ; [] |112| 
    1928 0002fe 521C          ADD.W     &dM+0,r12             ; [] |112| 
         000300 0000!
    1929 000302 621D          ADDC.W    &dM+2,r13             ; [] |112| 
         000304 0002!
    1930 000306 403E          MOV.W     #10,r14               ; [] |112| 
         000308 000A 
    1931 00030a 430F          MOV.W     #0,r15                ; [] |112| 
    1932            $C$DW$162       .dwtag  DW_TAG_TI_branch
    1933                    .dwattr $C$DW$162, DW_AT_low_pc(0x00)
    1934                    .dwattr $C$DW$162, DW_AT_name("__mspabi_mpyl")
    1935                    .dwattr $C$DW$162, DW_AT_TI_call
    1936 00030c 12B0          CALL      #__mspabi_mpyl        ; [] |112| 
         00030e 0000!
    1937                                                      ; [] |112| 
    1938 000310 521C          ADD.W     &uM+0,r12             ; [] |112| 
         000312 0000!
    1939 000314 621D          ADDC.W    &uM+2,r13             ; [] |112| 
         000316 0002!
    1940 000318 403E          MOV.W     #10,r14               ; [] |112| 
         00031a 000A 
    1941 00031c 430F          MOV.W     #0,r15                ; [] |112| 
    1942            $C$DW$163       .dwtag  DW_TAG_TI_branch
    1943                    .dwattr $C$DW$163, DW_AT_low_pc(0x00)
    1944                    .dwattr $C$DW$163, DW_AT_name("__mspabi_mpyl")
    1945                    .dwattr $C$DW$163, DW_AT_TI_call
    1946 00031e 12B0          CALL      #__mspabi_mpyl        ; [] |112| 
         000320 0000!
    1947                                                      ; [] |112| 
    1948 000322 521C          ADD.W     &cm+0,r12             ; [] |112| 
         000324 0000!
    1949 000326 621D          ADDC.W    &cm+2,r13             ; [] |112| 
MSP430 Assembler PC v4.2.1 Sat Jan 28 11:33:39 2017

Tools Copyright (c) 2003-2013 Texas Instruments Incorporated
C:\Users\mauricio\AppData\Local\Temp\0410010                         PAGE   40

         000328 0002!
    1950 00032a 403E          MOV.W     #10,r14               ; [] |112| 
         00032c 000A 
    1951 00032e 430F          MOV.W     #0,r15                ; [] |112| 
    1952            $C$DW$164       .dwtag  DW_TAG_TI_branch
    1953                    .dwattr $C$DW$164, DW_AT_low_pc(0x00)
    1954                    .dwattr $C$DW$164, DW_AT_name("__mspabi_mpyl")
    1955                    .dwattr $C$DW$164, DW_AT_TI_call
    1956 000330 12B0          CALL      #__mspabi_mpyl        ; [] |112| 
         000332 0000!
    1957                                                      ; [] |112| 
    1958 000334 521C          ADD.W     &dm+0,r12             ; [] |112| 
         000336 0000!
    1959 000338 621D          ADDC.W    &dm+2,r13             ; [] |112| 
         00033a 0002!
    1960 00033c 403E          MOV.W     #10,r14               ; [] |112| 
         00033e 000A 
    1961 000340 430F          MOV.W     #0,r15                ; [] |112| 
    1962            $C$DW$165       .dwtag  DW_TAG_TI_branch
    1963                    .dwattr $C$DW$165, DW_AT_low_pc(0x00)
    1964                    .dwattr $C$DW$165, DW_AT_name("__mspabi_mpyl")
    1965                    .dwattr $C$DW$165, DW_AT_TI_call
    1966 000342 12B0          CALL      #__mspabi_mpyl        ; [] |112| 
         000344 0000!
    1967                                                      ; [] |112| 
    1968 000346 521C          ADD.W     &um+0,r12             ; [] |112| 
         000348 0000!
    1969 00034a 621D          ADDC.W    &um+2,r13             ; [] |112| 
         00034c 0002!
    1970 00034e 403E          MOV.W     #10,r14               ; [] |112| 
         000350 000A 
    1971 000352 430F          MOV.W     #0,r15                ; [] |112| 
    1972            $C$DW$166       .dwtag  DW_TAG_TI_branch
    1973                    .dwattr $C$DW$166, DW_AT_low_pc(0x00)
    1974                    .dwattr $C$DW$166, DW_AT_name("__mspabi_mpyl")
    1975                    .dwattr $C$DW$166, DW_AT_TI_call
    1976 000354 12B0          CALL      #__mspabi_mpyl        ; [] |112| 
         000356 0000!
    1977                                                      ; [] |112| 
    1978 000358 521C          ADD.W     &c+0,r12              ; [] |112| 
         00035a 0000!
    1979 00035c 621D          ADDC.W    &c+2,r13              ; [] |112| 
         00035e 0002!
    1980 000360 403E          MOV.W     #10,r14               ; [] |112| 
         000362 000A 
    1981 000364 430F          MOV.W     #0,r15                ; [] |112| 
    1982            $C$DW$167       .dwtag  DW_TAG_TI_branch
    1983                    .dwattr $C$DW$167, DW_AT_low_pc(0x00)
    1984                    .dwattr $C$DW$167, DW_AT_name("__mspabi_mpyl")
    1985                    .dwattr $C$DW$167, DW_AT_TI_call
    1986 000366 12B0          CALL      #__mspabi_mpyl        ; [] |112| 
         000368 0000!
    1987                                                      ; [] |112| 
    1988 00036a 521C          ADD.W     &d+0,r12              ; [] |112| 
         00036c 0000!
MSP430 Assembler PC v4.2.1 Sat Jan 28 11:33:39 2017

Tools Copyright (c) 2003-2013 Texas Instruments Incorporated
C:\Users\mauricio\AppData\Local\Temp\0410010                         PAGE   41

    1989 00036e 621D          ADDC.W    &d+2,r13              ; [] |112| 
         000370 0002!
    1990 000372 403E          MOV.W     #10,r14               ; [] |112| 
         000374 000A 
    1991 000376 430F          MOV.W     #0,r15                ; [] |112| 
    1992            $C$DW$168       .dwtag  DW_TAG_TI_branch
    1993                    .dwattr $C$DW$168, DW_AT_low_pc(0x00)
    1994                    .dwattr $C$DW$168, DW_AT_name("__mspabi_mpyl")
    1995                    .dwattr $C$DW$168, DW_AT_TI_call
    1996 000378 12B0          CALL      #__mspabi_mpyl        ; [] |112| 
         00037a 0000!
    1997                                                      ; [] |112| 
    1998            ;* --------------------------------------------------------------------------*
    1999 00037c 8C09          SUB.W     r12,r9                ; [] |112| 
    2000 00037e 7D0A          SUBC.W    r13,r10               ; [] |112| 
    2001 000380 4982          MOV.W     r9,&u+0               ; [] |112| 
         000382 0000!
    2002 000384 4A82          MOV.W     r10,&u+2              ; [] |112| 
         000386 0002!
    2003                    .dwpsn  file "..\CDC.h",line 114,column 2,is_stmt,isa 0
    2004 000388 403F          MOV.W     #48,r15               ; [] |114| 
         00038a 0030 
    2005 00038c 525F          ADD.B     &cM+0,r15             ; [] |114| 
         00038e 0000!
    2006 000390 4FC2          MOV.B     r15,&aux_char1+0      ; [] |114| 
         000392 0000!
    2007                    .dwpsn  file "..\CDC.h",line 115,column 2,is_stmt,isa 0
    2008 000394 403F          MOV.W     #48,r15               ; [] |115| 
         000396 0030 
    2009 000398 525F          ADD.B     &dM+0,r15             ; [] |115| 
         00039a 0000!
    2010 00039c 4FC2          MOV.B     r15,&aux_char1+1      ; [] |115| 
         00039e 0001!
    2011                    .dwpsn  file "..\CDC.h",line 116,column 2,is_stmt,isa 0
    2012 0003a0 403F          MOV.W     #48,r15               ; [] |116| 
         0003a2 0030 
    2013 0003a4 525F          ADD.B     &uM+0,r15             ; [] |116| 
         0003a6 0000!
    2014 0003a8 4FC2          MOV.B     r15,&aux_char1+2      ; [] |116| 
         0003aa 0002!
    2015                    .dwpsn  file "..\CDC.h",line 117,column 2,is_stmt,isa 0
    2016 0003ac 403F          MOV.W     #48,r15               ; [] |117| 
         0003ae 0030 
    2017 0003b0 525F          ADD.B     &cm+0,r15             ; [] |117| 
         0003b2 0000!
    2018 0003b4 4FC2          MOV.B     r15,&aux_char1+3      ; [] |117| 
         0003b6 0003!
    2019                    .dwpsn  file "..\CDC.h",line 118,column 2,is_stmt,isa 0
    2020 0003b8 403F          MOV.W     #48,r15               ; [] |118| 
         0003ba 0030 
    2021 0003bc 525F          ADD.B     &dm+0,r15             ; [] |118| 
         0003be 0000!
    2022 0003c0 4FC2          MOV.B     r15,&aux_char1+4      ; [] |118| 
         0003c2 0004!
    2023                    .dwpsn  file "..\CDC.h",line 119,column 2,is_stmt,isa 0
MSP430 Assembler PC v4.2.1 Sat Jan 28 11:33:39 2017

Tools Copyright (c) 2003-2013 Texas Instruments Incorporated
C:\Users\mauricio\AppData\Local\Temp\0410010                         PAGE   42

    2024 0003c4 403F          MOV.W     #48,r15               ; [] |119| 
         0003c6 0030 
    2025 0003c8 525F          ADD.B     &um+0,r15             ; [] |119| 
         0003ca 0000!
    2026 0003cc 4FC2          MOV.B     r15,&aux_char1+5      ; [] |119| 
         0003ce 0005!
    2027                    .dwpsn  file "..\CDC.h",line 120,column 2,is_stmt,isa 0
    2028 0003d0 403F          MOV.W     #48,r15               ; [] |120| 
         0003d2 0030 
    2029 0003d4 525F          ADD.B     &c+0,r15              ; [] |120| 
         0003d6 0000!
    2030 0003d8 4FC2          MOV.B     r15,&aux_char1+6      ; [] |120| 
         0003da 0006!
    2031                    .dwpsn  file "..\CDC.h",line 121,column 2,is_stmt,isa 0
    2032 0003dc 403F          MOV.W     #48,r15               ; [] |121| 
         0003de 0030 
    2033 0003e0 525F          ADD.B     &d+0,r15              ; [] |121| 
         0003e2 0000!
    2034 0003e4 4FC2          MOV.B     r15,&aux_char1+7      ; [] |121| 
         0003e6 0007!
    2035                    .dwpsn  file "..\CDC.h",line 122,column 2,is_stmt,isa 0
    2036 0003e8 403F          MOV.W     #48,r15               ; [] |122| 
         0003ea 0030 
    2037 0003ec 525F          ADD.B     &u+0,r15              ; [] |122| 
         0003ee 0000!
    2038 0003f0 4FC2          MOV.B     r15,&aux_char1+8      ; [] |122| 
         0003f2 0008!
    2039                    .dwpsn  file "..\CDC.h",line 124,column 2,is_stmt,isa 0
    2040 0003f4 403C          MOV.W     #aux_char1+0,r12      ; [] |124| 
         0003f6 0000!
    2041            $C$DW$169       .dwtag  DW_TAG_TI_branch
    2042                    .dwattr $C$DW$169, DW_AT_low_pc(0x00)
    2043                    .dwattr $C$DW$169, DW_AT_name("ec")
    2044                    .dwattr $C$DW$169, DW_AT_TI_call
    2045 0003f8 12B0          CALL      #ec                   ; [] |124| 
         0003fa 0000!
    2046                                                      ; [] |124| 
    2047                    .dwpsn  file "..\CDC.h",line 126,column 2,is_stmt,isa 0
    2048 0003fc 42F2          MOV.B     #8,&aux_char1+0       ; [] |126| 
         0003fe 0000!
    2049                    .dwpsn  file "..\CDC.h",line 127,column 2,is_stmt,isa 0
    2050 000400 40F2          MOV.B     #48,&aux_char1+1      ; [] |127| 
         000402 0030 
         000404 0001!
    2051                    .dwpsn  file "..\CDC.h",line 128,column 2,is_stmt,isa 0
    2052 000406 40F2          MOV.B     #48,&aux_char1+2      ; [] |128| 
         000408 0030 
         00040a 0002!
    2053                    .dwpsn  file "..\CDC.h",line 129,column 2,is_stmt,isa 0
    2054 00040c 40F2          MOV.B     #48,&aux_char1+3      ; [] |129| 
         00040e 0030 
         000410 0003!
    2055                    .dwpsn  file "..\CDC.h",line 130,column 2,is_stmt,isa 0
    2056 000412 40F2          MOV.B     #48,&aux_char1+4      ; [] |130| 
         000414 0030 
MSP430 Assembler PC v4.2.1 Sat Jan 28 11:33:39 2017

Tools Copyright (c) 2003-2013 Texas Instruments Incorporated
C:\Users\mauricio\AppData\Local\Temp\0410010                         PAGE   43

         000416 0004!
    2057                    .dwpsn  file "..\CDC.h",line 131,column 2,is_stmt,isa 0
    2058 000418 40F2          MOV.B     #48,&aux_char1+5      ; [] |131| 
         00041a 0030 
         00041c 0005!
    2059                    .dwpsn  file "..\CDC.h",line 132,column 2,is_stmt,isa 0
    2060 00041e 40F2          MOV.B     #48,&aux_char1+6      ; [] |132| 
         000420 0030 
         000422 0006!
    2061                    .dwpsn  file "..\CDC.h",line 133,column 2,is_stmt,isa 0
    2062 000424 40F2          MOV.B     #48,&aux_char1+7      ; [] |133| 
         000426 0030 
         000428 0007!
    2063                    .dwpsn  file "..\CDC.h",line 134,column 2,is_stmt,isa 0
    2064 00042a 40F2          MOV.B     #48,&aux_char1+8      ; [] |134| 
         00042c 0030 
         00042e 0008!
    2065                    .dwpsn  file "..\CDC.h",line 135,column 1,is_stmt,isa 0
    2066 000430 4030          BR        #__mspabi_func_epilog_2+0 ; [] 
         000432 0000!
    2067                                                      ; [] 
    2068                    .dwattr $C$DW$122, DW_AT_TI_end_file("..\CDC.h")
    2069                    .dwattr $C$DW$122, DW_AT_TI_end_line(0x87)
    2070                    .dwattr $C$DW$122, DW_AT_TI_end_column(0x01)
    2071                    .dwendentry
    2072                    .dwendtag $C$DW$122
    2073            
    2074 000000               .sect   ".text:int2hex"
    2075                    .align  2
    2076                    .clink
    2077                    .global int2hex
    2078            
    2079            $C$DW$170       .dwtag  DW_TAG_subprogram, DW_AT_name("int2hex")
    2080                    .dwattr $C$DW$170, DW_AT_low_pc(int2hex)
    2081                    .dwattr $C$DW$170, DW_AT_high_pc(0x00)
    2082                    .dwattr $C$DW$170, DW_AT_TI_symbol_name("int2hex")
    2083                    .dwattr $C$DW$170, DW_AT_external
    2084                    .dwattr $C$DW$170, DW_AT_TI_begin_file("..\CDC.h")
    2085                    .dwattr $C$DW$170, DW_AT_TI_begin_line(0x89)
    2086                    .dwattr $C$DW$170, DW_AT_TI_begin_column(0x06)
    2087                    .dwattr $C$DW$170, DW_AT_decl_file("..\CDC.h")
    2088                    .dwattr $C$DW$170, DW_AT_decl_line(0x89)
    2089                    .dwattr $C$DW$170, DW_AT_decl_column(0x06)
    2090                    .dwattr $C$DW$170, DW_AT_TI_max_frame_size(0x02)
    2091                    .dwpsn  file "..\CDC.h",line 138,column 1,is_stmt,address int2hex,isa 0
    2092            
    2093                    .dwfde $C$DW$CIE, int2hex
    2094            $C$DW$171       .dwtag  DW_TAG_formal_parameter, DW_AT_name("datoint")
    2095                    .dwattr $C$DW$171, DW_AT_TI_symbol_name("datoint")
    2096                    .dwattr $C$DW$171, DW_AT_type(*$C$DW$T$11)
    2097                    .dwattr $C$DW$171, DW_AT_location[DW_OP_reg12]
    2098            
    2099            ;*****************************************************************************
    2100            ;* FUNCTION NAME: int2hex                                                    *
    2101            ;*                                                                           *
MSP430 Assembler PC v4.2.1 Sat Jan 28 11:33:39 2017

Tools Copyright (c) 2003-2013 Texas Instruments Incorporated
C:\Users\mauricio\AppData\Local\Temp\0410010                         PAGE   44

    2102            ;*   Regs Modified     : SP,SR,r12,r14,r15                                   *
    2103            ;*   Regs Used         : SP,SR,r12,r14,r15                                   *
    2104            ;*   Local Frame Size  : 0 Args + 0 Auto + 0 Save = 0 byte                   *
    2105            ;*****************************************************************************
    2106 000000       int2hex:
    2107            ;* --------------------------------------------------------------------------*
    2108                    .dwcfi  cfa_offset, 2
    2109                    .dwcfi  save_reg_to_mem, 16, -2
    2110            ;* r15   assigned to datoint
    2111            $C$DW$172       .dwtag  DW_TAG_variable, DW_AT_name("datoint")
    2112                    .dwattr $C$DW$172, DW_AT_TI_symbol_name("datoint")
    2113                    .dwattr $C$DW$172, DW_AT_type(*$C$DW$T$11)
    2114                    .dwattr $C$DW$172, DW_AT_location[DW_OP_reg15]
    2115 000000 4C0F          MOV.W     r12,r15               ; [] |138| 
    2116                    .dwpsn  file "..\CDC.h",line 139,column 2,is_stmt,isa 0
    2117 000002 4F0E          MOV.W     r15,r14               ; [] |139| 
    2118 000004 F07E          AND.B     #15,r14               ; [] |139| 
         000006 000F 
    2119 000008 4EC2          MOV.B     r14,&_UD+0            ; [] |139| 
         00000a 0000!
    2120                    .dwpsn  file "..\CDC.h",line 140,column 2,is_stmt,isa 0
    2121            $C$DW$173       .dwtag  DW_TAG_TI_branch
    2122                    .dwattr $C$DW$173, DW_AT_low_pc(0x00)
    2123                    .dwattr $C$DW$173, DW_AT_name("__mspabi_srli_4")
    2124                    .dwattr $C$DW$173, DW_AT_TI_call
    2125 00000c 12B0          CALL      #__mspabi_srli_4      ; [] |140| 
         00000e 0000!
    2126                                                      ; [] |140| 
    2127 000010 F07C          AND.B     #15,r12               ; [] |140| 
         000012 000F 
    2128 000014 4CC2          MOV.B     r12,&_UM+0            ; [] |140| 
         000016 0000!
    2129                    .dwpsn  file "..\CDC.h",line 141,column 2,is_stmt,isa 0
    2130 000018 4F0E          MOV.W     r15,r14               ; [] |141| 
    2131 00001a 108E          SWPB      r14                   ; [] |141| 
    2132 00001c F07E          AND.B     #15,r14               ; [] |141| 
         00001e 000F 
    2133 000020 4EC2          MOV.B     r14,&_DM+0            ; [] |141| 
         000022 0000!
    2134                    .dwpsn  file "..\CDC.h",line 142,column 2,is_stmt,isa 0
    2135 000024 4F0C          MOV.W     r15,r12               ; [] |142| 
    2136            $C$DW$174       .dwtag  DW_TAG_TI_branch
    2137                    .dwattr $C$DW$174, DW_AT_low_pc(0x00)
    2138                    .dwattr $C$DW$174, DW_AT_name("__mspabi_srli_12")
    2139                    .dwattr $C$DW$174, DW_AT_TI_call
    2140 000026 12B0          CALL      #__mspabi_srli_12     ; [] |142| 
         000028 0000!
    2141                                                      ; [] |142| 
    2142 00002a 4CC2          MOV.B     r12,&_D+0             ; [] |142| 
         00002c 0000!
    2143                    .dwpsn  file "..\CDC.h",line 144,column 13,is_stmt,isa 0
    2144 00002e 90F2          CMP.B     #10,&_UD+0            ; [] |144| 
         000030 000A 
         000032 0000!
    2145 000034 2C03          JHS       $C$L11                ; [] |144| 
MSP430 Assembler PC v4.2.1 Sat Jan 28 11:33:39 2017

Tools Copyright (c) 2003-2013 Texas Instruments Incorporated
C:\Users\mauricio\AppData\Local\Temp\0410010                         PAGE   45

    2146                                                      ; [] |144| 
    2147            ;* --------------------------------------------------------------------------*
    2148 000036 403F          MOV.W     #48,r15               ; [] |144| 
         000038 0030 
    2149 00003a 3C02          JMP       $C$L12                ; [] |144| 
    2150                                                      ; [] |144| 
    2151            ;* --------------------------------------------------------------------------*
    2152 00003c       $C$L11:    
    2153 00003c 403F          MOV.W     #55,r15               ; [] |144| 
         00003e 0037 
    2154            ;* --------------------------------------------------------------------------*
    2155 000040       $C$L12:    
    2156 000040 5FC2          ADD.B     r15,&_UD+0            ; [] |144| 
         000042 0000!
    2157                    .dwpsn  file "..\CDC.h",line 145,column 13,is_stmt,isa 0
    2158 000044 90F2          CMP.B     #10,&_UM+0            ; [] |145| 
         000046 000A 
         000048 0000!
    2159 00004a 2C03          JHS       $C$L13                ; [] |145| 
    2160                                                      ; [] |145| 
    2161            ;* --------------------------------------------------------------------------*
    2162 00004c 403F          MOV.W     #48,r15               ; [] |145| 
         00004e 0030 
    2163 000050 3C02          JMP       $C$L14                ; [] |145| 
    2164                                                      ; [] |145| 
    2165            ;* --------------------------------------------------------------------------*
    2166 000052       $C$L13:    
    2167 000052 403F          MOV.W     #55,r15               ; [] |145| 
         000054 0037 
    2168            ;* --------------------------------------------------------------------------*
    2169 000056       $C$L14:    
    2170 000056 5FC2          ADD.B     r15,&_UM+0            ; [] |145| 
         000058 0000!
    2171                    .dwpsn  file "..\CDC.h",line 146,column 13,is_stmt,isa 0
    2172 00005a 90F2          CMP.B     #10,&_DM+0            ; [] |146| 
         00005c 000A 
         00005e 0000!
    2173 000060 2C03          JHS       $C$L15                ; [] |146| 
    2174                                                      ; [] |146| 
    2175            ;* --------------------------------------------------------------------------*
    2176 000062 403F          MOV.W     #48,r15               ; [] |146| 
         000064 0030 
    2177 000066 3C02          JMP       $C$L16                ; [] |146| 
    2178                                                      ; [] |146| 
    2179            ;* --------------------------------------------------------------------------*
    2180 000068       $C$L15:    
    2181 000068 403F          MOV.W     #55,r15               ; [] |146| 
         00006a 0037 
    2182            ;* --------------------------------------------------------------------------*
    2183 00006c       $C$L16:    
    2184 00006c 5FC2          ADD.B     r15,&_DM+0            ; [] |146| 
         00006e 0000!
    2185                    .dwpsn  file "..\CDC.h",line 147,column 12,is_stmt,isa 0
    2186 000070 90F2          CMP.B     #10,&_D+0             ; [] |147| 
         000072 000A 
MSP430 Assembler PC v4.2.1 Sat Jan 28 11:33:39 2017

Tools Copyright (c) 2003-2013 Texas Instruments Incorporated
C:\Users\mauricio\AppData\Local\Temp\0410010                         PAGE   46

         000074 0000!
    2187 000076 2C03          JHS       $C$L17                ; [] |147| 
    2188                                                      ; [] |147| 
    2189            ;* --------------------------------------------------------------------------*
    2190 000078 403F          MOV.W     #48,r15               ; [] |147| 
         00007a 0030 
    2191 00007c 3C02          JMP       $C$L18                ; [] |147| 
    2192                                                      ; [] |147| 
    2193            ;* --------------------------------------------------------------------------*
    2194 00007e       $C$L17:    
    2195 00007e 403F          MOV.W     #55,r15               ; [] |147| 
         000080 0037 
    2196            ;* --------------------------------------------------------------------------*
    2197 000082       $C$L18:    
    2198 000082 5FC2          ADD.B     r15,&_D+0             ; [] |147| 
         000084 0000!
    2199                    .dwpsn  file "..\CDC.h",line 148,column 2,is_stmt,isa 0
    2200 000086 42D2          MOV.B     &_UD+0,&aux_char+4    ; [] |148| 
         000088 0000!
         00008a 0004!
    2201                    .dwpsn  file "..\CDC.h",line 149,column 2,is_stmt,isa 0
    2202 00008c 42D2          MOV.B     &_UM+0,&aux_char+3    ; [] |149| 
         00008e 0000!
         000090 0003!
    2203                    .dwpsn  file "..\CDC.h",line 150,column 2,is_stmt,isa 0
    2204 000092 42D2          MOV.B     &_DM+0,&aux_char+2    ; [] |150| 
         000094 0000!
         000096 0002!
    2205                    .dwpsn  file "..\CDC.h",line 151,column 2,is_stmt,isa 0
    2206 000098 42D2          MOV.B     &_D+0,&aux_char+1     ; [] |151| 
         00009a 0000!
         00009c 0001!
    2207                    .dwpsn  file "..\CDC.h",line 152,column 2,is_stmt,isa 0
    2208 00009e 403C          MOV.W     #aux_char+0,r12       ; [] |152| 
         0000a0 0000!
    2209            $C$DW$175       .dwtag  DW_TAG_TI_branch
    2210                    .dwattr $C$DW$175, DW_AT_low_pc(0x00)
    2211                    .dwattr $C$DW$175, DW_AT_name("ec")
    2212                    .dwattr $C$DW$175, DW_AT_TI_call
    2213 0000a2 12B0          CALL      #ec                   ; [] |152| 
         0000a4 0000!
    2214                                                      ; [] |152| 
    2215                    .dwpsn  file "..\CDC.h",line 153,column 1,is_stmt,isa 0
    2216            $C$DW$176       .dwtag  DW_TAG_TI_branch
    2217                    .dwattr $C$DW$176, DW_AT_low_pc(0x00)
    2218                    .dwattr $C$DW$176, DW_AT_TI_return
    2219 0000a6 4130          RET       ; [] 
    2220                    ; [] 
    2221                    .dwattr $C$DW$170, DW_AT_TI_end_file("..\CDC.h")
    2222                    .dwattr $C$DW$170, DW_AT_TI_end_line(0x99)
    2223                    .dwattr $C$DW$170, DW_AT_TI_end_column(0x01)
    2224                    .dwendentry
    2225                    .dwendtag $C$DW$170
    2226            
    2227 000000               .sect   ".text:borrar"
MSP430 Assembler PC v4.2.1 Sat Jan 28 11:33:39 2017

Tools Copyright (c) 2003-2013 Texas Instruments Incorporated
C:\Users\mauricio\AppData\Local\Temp\0410010                         PAGE   47

    2228                    .align  2
    2229                    .clink
    2230                    .global borrar
    2231            
    2232            $C$DW$177       .dwtag  DW_TAG_subprogram, DW_AT_name("borrar")
    2233                    .dwattr $C$DW$177, DW_AT_low_pc(borrar)
    2234                    .dwattr $C$DW$177, DW_AT_high_pc(0x00)
    2235                    .dwattr $C$DW$177, DW_AT_TI_symbol_name("borrar")
    2236                    .dwattr $C$DW$177, DW_AT_external
    2237                    .dwattr $C$DW$177, DW_AT_TI_begin_file("..\CDC.h")
    2238                    .dwattr $C$DW$177, DW_AT_TI_begin_line(0x9b)
    2239                    .dwattr $C$DW$177, DW_AT_TI_begin_column(0x06)
    2240                    .dwattr $C$DW$177, DW_AT_decl_file("..\CDC.h")
    2241                    .dwattr $C$DW$177, DW_AT_decl_line(0x9b)
    2242                    .dwattr $C$DW$177, DW_AT_decl_column(0x06)
    2243                    .dwattr $C$DW$177, DW_AT_TI_max_frame_size(0x02)
    2244                    .dwpsn  file "..\CDC.h",line 155,column 14,is_stmt,address borrar,isa 0
    2245            
    2246                    .dwfde $C$DW$CIE, borrar
    2247            
    2248            ;*****************************************************************************
    2249            ;* FUNCTION NAME: borrar                                                     *
    2250            ;*                                                                           *
    2251            ;*   Regs Modified     : SP,SR,r12                                           *
    2252            ;*   Regs Used         : SP,SR,r12                                           *
    2253            ;*   Local Frame Size  : 0 Args + 0 Auto + 0 Save = 0 byte                   *
    2254            ;*****************************************************************************
    2255 000000       borrar:
    2256            ;* --------------------------------------------------------------------------*
    2257                    .dwcfi  cfa_offset, 2
    2258                    .dwcfi  save_reg_to_mem, 16, -2
    2259                    .dwpsn  file "..\CDC.h",line 155,column 15,is_stmt,isa 0
    2260 000000 407C          MOV.B     #13,r12               ; [] |155| 
         000002 000D 
    2261            $C$DW$178       .dwtag  DW_TAG_TI_branch
    2262                    .dwattr $C$DW$178, DW_AT_low_pc(0x00)
    2263                    .dwattr $C$DW$178, DW_AT_name("enviardato")
    2264                    .dwattr $C$DW$178, DW_AT_TI_call
    2265 000004 12B0          CALL      #enviardato           ; [] |155| 
         000006 0000!
    2266                                                      ; [] |155| 
    2267                    .dwpsn  file "..\CDC.h",line 155,column 30,is_stmt,isa 0
    2268            $C$DW$179       .dwtag  DW_TAG_TI_branch
    2269                    .dwattr $C$DW$179, DW_AT_low_pc(0x00)
    2270                    .dwattr $C$DW$179, DW_AT_TI_return
    2271 000008 4130          RET       ; [] 
    2272                    ; [] 
    2273                    .dwattr $C$DW$177, DW_AT_TI_end_file("..\CDC.h")
    2274                    .dwattr $C$DW$177, DW_AT_TI_end_line(0x9b)
    2275                    .dwattr $C$DW$177, DW_AT_TI_end_column(0x1e)
    2276                    .dwendentry
    2277                    .dwendtag $C$DW$177
    2278            
    2279 000000               .sect   ".text:printint"
    2280                    .align  2
MSP430 Assembler PC v4.2.1 Sat Jan 28 11:33:39 2017

Tools Copyright (c) 2003-2013 Texas Instruments Incorporated
C:\Users\mauricio\AppData\Local\Temp\0410010                         PAGE   48

    2281                    .clink
    2282                    .global printint
    2283            
    2284            $C$DW$180       .dwtag  DW_TAG_subprogram, DW_AT_name("printint")
    2285                    .dwattr $C$DW$180, DW_AT_low_pc(printint)
    2286                    .dwattr $C$DW$180, DW_AT_high_pc(0x00)
    2287                    .dwattr $C$DW$180, DW_AT_TI_symbol_name("printint")
    2288                    .dwattr $C$DW$180, DW_AT_external
    2289                    .dwattr $C$DW$180, DW_AT_TI_begin_file("..\CDC.h")
    2290                    .dwattr $C$DW$180, DW_AT_TI_begin_line(0x9d)
    2291                    .dwattr $C$DW$180, DW_AT_TI_begin_column(0x06)
    2292                    .dwattr $C$DW$180, DW_AT_decl_file("..\CDC.h")
    2293                    .dwattr $C$DW$180, DW_AT_decl_line(0x9d)
    2294                    .dwattr $C$DW$180, DW_AT_decl_column(0x06)
    2295                    .dwattr $C$DW$180, DW_AT_TI_max_frame_size(0x02)
    2296                    .dwpsn  file "..\CDC.h",line 158,column 1,is_stmt,address printint,isa 0
    2297            
    2298                    .dwfde $C$DW$CIE, printint
    2299            $C$DW$181       .dwtag  DW_TAG_formal_parameter, DW_AT_name("intchar1")
    2300                    .dwattr $C$DW$181, DW_AT_TI_symbol_name("intchar1")
    2301                    .dwattr $C$DW$181, DW_AT_type(*$C$DW$T$10)
    2302                    .dwattr $C$DW$181, DW_AT_location[DW_OP_reg12]
    2303            
    2304            ;*****************************************************************************
    2305            ;* FUNCTION NAME: printint                                                   *
    2306            ;*                                                                           *
    2307            ;*   Regs Modified     : SP,SR,r11,r12,r13,r14,r15                           *
    2308            ;*   Regs Used         : SP,SR,r11,r12,r13,r14,r15                           *
    2309            ;*   Local Frame Size  : 0 Args + 0 Auto + 0 Save = 0 byte                   *
    2310            ;*****************************************************************************
    2311 000000       printint:
    2312            ;* --------------------------------------------------------------------------*
    2313                    .dwcfi  cfa_offset, 2
    2314                    .dwcfi  save_reg_to_mem, 16, -2
    2315            ;* r12   assigned to intchar1
    2316            $C$DW$182       .dwtag  DW_TAG_variable, DW_AT_name("intchar1")
    2317                    .dwattr $C$DW$182, DW_AT_TI_symbol_name("intchar1")
    2318                    .dwattr $C$DW$182, DW_AT_type(*$C$DW$T$10)
    2319                    .dwattr $C$DW$182, DW_AT_location[DW_OP_reg12]
    2320            ;* r11   assigned to intchar2
    2321            $C$DW$183       .dwtag  DW_TAG_variable, DW_AT_name("intchar2")
    2322                    .dwattr $C$DW$183, DW_AT_TI_symbol_name("intchar2")
    2323                    .dwattr $C$DW$183, DW_AT_type(*$C$DW$T$11)
    2324                    .dwattr $C$DW$183, DW_AT_location[DW_OP_reg11]
    2325                    .dwpsn  file "..\CDC.h",line 159,column 22,is_stmt,isa 0
    2326 000000 4C0B          MOV.W     r12,r11               ; [] |159| 
    2327                    .dwpsn  file "..\CDC.h",line 161,column 2,is_stmt,isa 0
    2328 000002 403D          MOV.W     #10000,r13            ; [] |161| 
         000004 2710 
    2329            $C$DW$184       .dwtag  DW_TAG_TI_branch
    2330                    .dwattr $C$DW$184, DW_AT_low_pc(0x00)
    2331                    .dwattr $C$DW$184, DW_AT_name("__mspabi_divu")
    2332                    .dwattr $C$DW$184, DW_AT_TI_call
    2333 000006 12B0          CALL      #__mspabi_divu        ; [] |161| 
         000008 0000!
MSP430 Assembler PC v4.2.1 Sat Jan 28 11:33:39 2017

Tools Copyright (c) 2003-2013 Texas Instruments Incorporated
C:\Users\mauricio\AppData\Local\Temp\0410010                         PAGE   49

    2334                                                      ; [] |161| 
    2335 00000a 4CC2          MOV.B     r12,&_DM+0            ; [] |161| 
         00000c 0000!
    2336                    .dwpsn  file "..\CDC.h",line 162,column 2,is_stmt,isa 0
    2337 00000e 425C          MOV.B     &_DM+0,r12            ; [] |162| 
         000010 0000!
    2338 000012 403D          MOV.W     #10000,r13            ; [] |162| 
         000014 2710 
    2339            $C$DW$185       .dwtag  DW_TAG_TI_branch
    2340                    .dwattr $C$DW$185, DW_AT_low_pc(0x00)
    2341                    .dwattr $C$DW$185, DW_AT_name("__mspabi_mpyi")
    2342                    .dwattr $C$DW$185, DW_AT_TI_call
    2343 000016 12B0          CALL      #__mspabi_mpyi        ; [] |162| 
         000018 0000!
    2344                                                      ; [] |162| 
    2345 00001a 4C0F          MOV.W     r12,r15               ; [] |162| 
    2346 00001c 4B0C          MOV.W     r11,r12               ; [] |162| 
    2347 00001e 8F0C          SUB.W     r15,r12               ; [] |162| 
    2348 000020 403D          MOV.W     #1000,r13             ; [] |162| 
         000022 03E8 
    2349            $C$DW$186       .dwtag  DW_TAG_TI_branch
    2350                    .dwattr $C$DW$186, DW_AT_low_pc(0x00)
    2351                    .dwattr $C$DW$186, DW_AT_name("__mspabi_divu")
    2352                    .dwattr $C$DW$186, DW_AT_TI_call
    2353 000024 12B0          CALL      #__mspabi_divu        ; [] |162| 
         000026 0000!
    2354                                                      ; [] |162| 
    2355 000028 4CC2          MOV.B     r12,&_UM+0            ; [] |162| 
         00002a 0000!
    2356                    .dwpsn  file "..\CDC.h",line 163,column 2,is_stmt,isa 0
    2357 00002c 425C          MOV.B     &_DM+0,r12            ; [] |163| 
         00002e 0000!
    2358 000030 403D          MOV.W     #10,r13               ; [] |163| 
         000032 000A 
    2359            $C$DW$187       .dwtag  DW_TAG_TI_branch
    2360                    .dwattr $C$DW$187, DW_AT_low_pc(0x00)
    2361                    .dwattr $C$DW$187, DW_AT_name("__mspabi_mpyi")
    2362                    .dwattr $C$DW$187, DW_AT_TI_call
    2363 000034 12B0          CALL      #__mspabi_mpyi        ; [] |163| 
         000036 0000!
    2364                                                      ; [] |163| 
    2365 000038 425F          MOV.B     &_UM+0,r15            ; [] |163| 
         00003a 0000!
    2366 00003c 5F0C          ADD.W     r15,r12               ; [] |163| 
    2367 00003e 403D          MOV.W     #1000,r13             ; [] |163| 
         000040 03E8 
    2368            $C$DW$188       .dwtag  DW_TAG_TI_branch
    2369                    .dwattr $C$DW$188, DW_AT_low_pc(0x00)
    2370                    .dwattr $C$DW$188, DW_AT_name("__mspabi_mpyi")
    2371                    .dwattr $C$DW$188, DW_AT_TI_call
    2372 000042 12B0          CALL      #__mspabi_mpyi        ; [] |163| 
         000044 0000!
    2373                                                      ; [] |163| 
    2374 000046 4C0F          MOV.W     r12,r15               ; [] |163| 
    2375 000048 4B0C          MOV.W     r11,r12               ; [] |163| 
MSP430 Assembler PC v4.2.1 Sat Jan 28 11:33:39 2017

Tools Copyright (c) 2003-2013 Texas Instruments Incorporated
C:\Users\mauricio\AppData\Local\Temp\0410010                         PAGE   50

    2376 00004a 8F0C          SUB.W     r15,r12               ; [] |163| 
    2377 00004c 403D          MOV.W     #100,r13              ; [] |163| 
         00004e 0064 
    2378            $C$DW$189       .dwtag  DW_TAG_TI_branch
    2379                    .dwattr $C$DW$189, DW_AT_low_pc(0x00)
    2380                    .dwattr $C$DW$189, DW_AT_name("__mspabi_divu")
    2381                    .dwattr $C$DW$189, DW_AT_TI_call
    2382 000050 12B0          CALL      #__mspabi_divu        ; [] |163| 
         000052 0000!
    2383                                                      ; [] |163| 
    2384 000054 4CC2          MOV.B     r12,&_C+0             ; [] |163| 
         000056 0000!
    2385                    .dwpsn  file "..\CDC.h",line 164,column 2,is_stmt,isa 0
    2386 000058 425C          MOV.B     &_DM+0,r12            ; [] |164| 
         00005a 0000!
    2387 00005c 403D          MOV.W     #10,r13               ; [] |164| 
         00005e 000A 
    2388            $C$DW$190       .dwtag  DW_TAG_TI_branch
    2389                    .dwattr $C$DW$190, DW_AT_low_pc(0x00)
    2390                    .dwattr $C$DW$190, DW_AT_name("__mspabi_mpyi")
    2391                    .dwattr $C$DW$190, DW_AT_TI_call
    2392 000060 12B0          CALL      #__mspabi_mpyi        ; [] |164| 
         000062 0000!
    2393                                                      ; [] |164| 
    2394 000064 425F          MOV.B     &_UM+0,r15            ; [] |164| 
         000066 0000!
    2395 000068 5F0C          ADD.W     r15,r12               ; [] |164| 
    2396 00006a 403D          MOV.W     #10,r13               ; [] |164| 
         00006c 000A 
    2397            $C$DW$191       .dwtag  DW_TAG_TI_branch
    2398                    .dwattr $C$DW$191, DW_AT_low_pc(0x00)
    2399                    .dwattr $C$DW$191, DW_AT_name("__mspabi_mpyi")
    2400                    .dwattr $C$DW$191, DW_AT_TI_call
    2401 00006e 12B0          CALL      #__mspabi_mpyi        ; [] |164| 
         000070 0000!
    2402                                                      ; [] |164| 
    2403 000072 425F          MOV.B     &_C+0,r15             ; [] |164| 
         000074 0000!
    2404 000076 5F0C          ADD.W     r15,r12               ; [] |164| 
    2405 000078 403D          MOV.W     #100,r13              ; [] |164| 
         00007a 0064 
    2406            $C$DW$192       .dwtag  DW_TAG_TI_branch
    2407                    .dwattr $C$DW$192, DW_AT_low_pc(0x00)
    2408                    .dwattr $C$DW$192, DW_AT_name("__mspabi_mpyi")
    2409                    .dwattr $C$DW$192, DW_AT_TI_call
    2410 00007c 12B0          CALL      #__mspabi_mpyi        ; [] |164| 
         00007e 0000!
    2411                                                      ; [] |164| 
    2412 000080 4C0F          MOV.W     r12,r15               ; [] |164| 
    2413 000082 4B0C          MOV.W     r11,r12               ; [] |164| 
    2414 000084 8F0C          SUB.W     r15,r12               ; [] |164| 
    2415 000086 403D          MOV.W     #10,r13               ; [] |164| 
         000088 000A 
    2416            $C$DW$193       .dwtag  DW_TAG_TI_branch
    2417                    .dwattr $C$DW$193, DW_AT_low_pc(0x00)
MSP430 Assembler PC v4.2.1 Sat Jan 28 11:33:39 2017

Tools Copyright (c) 2003-2013 Texas Instruments Incorporated
C:\Users\mauricio\AppData\Local\Temp\0410010                         PAGE   51

    2418                    .dwattr $C$DW$193, DW_AT_name("__mspabi_divu")
    2419                    .dwattr $C$DW$193, DW_AT_TI_call
    2420 00008a 12B0          CALL      #__mspabi_divu        ; [] |164| 
         00008c 0000!
    2421                                                      ; [] |164| 
    2422 00008e 4CC2          MOV.B     r12,&_D+0             ; [] |164| 
         000090 0000!
    2423                    .dwpsn  file "..\CDC.h",line 165,column 2,is_stmt,isa 0
    2424 000092 425C          MOV.B     &_DM+0,r12            ; [] |165| 
         000094 0000!
    2425 000096 403D          MOV.W     #10,r13               ; [] |165| 
         000098 000A 
    2426            $C$DW$194       .dwtag  DW_TAG_TI_branch
    2427                    .dwattr $C$DW$194, DW_AT_low_pc(0x00)
    2428                    .dwattr $C$DW$194, DW_AT_name("__mspabi_mpyi")
    2429                    .dwattr $C$DW$194, DW_AT_TI_call
    2430 00009a 12B0          CALL      #__mspabi_mpyi        ; [] |165| 
         00009c 0000!
    2431                                                      ; [] |165| 
    2432            ;* --------------------------------------------------------------------------*
    2433 00009e 425F          MOV.B     &_UM+0,r15            ; [] |165| 
         0000a0 0000!
    2434 0000a2 5F0C          ADD.W     r15,r12               ; [] |165| 
    2435 0000a4 403D          MOV.W     #10,r13               ; [] |165| 
         0000a6 000A 
    2436            $C$DW$195       .dwtag  DW_TAG_TI_branch
    2437                    .dwattr $C$DW$195, DW_AT_low_pc(0x00)
    2438                    .dwattr $C$DW$195, DW_AT_name("__mspabi_mpyi")
    2439                    .dwattr $C$DW$195, DW_AT_TI_call
    2440 0000a8 12B0          CALL      #__mspabi_mpyi        ; [] |165| 
         0000aa 0000!
    2441                                                      ; [] |165| 
    2442 0000ac 425F          MOV.B     &_C+0,r15             ; [] |165| 
         0000ae 0000!
    2443 0000b0 5F0C          ADD.W     r15,r12               ; [] |165| 
    2444 0000b2 403D          MOV.W     #10,r13               ; [] |165| 
         0000b4 000A 
    2445            $C$DW$196       .dwtag  DW_TAG_TI_branch
    2446                    .dwattr $C$DW$196, DW_AT_low_pc(0x00)
    2447                    .dwattr $C$DW$196, DW_AT_name("__mspabi_mpyi")
    2448                    .dwattr $C$DW$196, DW_AT_TI_call
    2449 0000b6 12B0          CALL      #__mspabi_mpyi        ; [] |165| 
         0000b8 0000!
    2450                                                      ; [] |165| 
    2451 0000ba 425F          MOV.B     &_D+0,r15             ; [] |165| 
         0000bc 0000!
    2452 0000be 5F0C          ADD.W     r15,r12               ; [] |165| 
    2453 0000c0 403D          MOV.W     #10,r13               ; [] |165| 
         0000c2 000A 
    2454            $C$DW$197       .dwtag  DW_TAG_TI_branch
    2455                    .dwattr $C$DW$197, DW_AT_low_pc(0x00)
    2456                    .dwattr $C$DW$197, DW_AT_name("__mspabi_mpyi")
    2457                    .dwattr $C$DW$197, DW_AT_TI_call
    2458 0000c4 12B0          CALL      #__mspabi_mpyi        ; [] |165| 
         0000c6 0000!
MSP430 Assembler PC v4.2.1 Sat Jan 28 11:33:39 2017

Tools Copyright (c) 2003-2013 Texas Instruments Incorporated
C:\Users\mauricio\AppData\Local\Temp\0410010                         PAGE   52

    2459                                                      ; [] |165| 
    2460 0000c8 8C4B          SUB.B     r12,r11               ; [] |165| 
    2461 0000ca 4BC2          MOV.B     r11,&_U+0             ; [] |165| 
         0000cc 0000!
    2462                    .dwpsn  file "..\CDC.h",line 167,column 2,is_stmt,isa 0
    2463 0000ce 403F          MOV.W     #48,r15               ; [] |167| 
         0000d0 0030 
    2464 0000d2 525F          ADD.B     &_DM+0,r15            ; [] |167| 
         0000d4 0000!
    2465 0000d6 4FC2          MOV.B     r15,&aux_char+1       ; [] |167| 
         0000d8 0001!
    2466                    .dwpsn  file "..\CDC.h",line 168,column 2,is_stmt,isa 0
    2467 0000da 403F          MOV.W     #48,r15               ; [] |168| 
         0000dc 0030 
    2468 0000de 525F          ADD.B     &_UM+0,r15            ; [] |168| 
         0000e0 0000!
    2469 0000e2 4FC2          MOV.B     r15,&aux_char+2       ; [] |168| 
         0000e4 0002!
    2470                    .dwpsn  file "..\CDC.h",line 169,column 2,is_stmt,isa 0
    2471 0000e6 403F          MOV.W     #48,r15               ; [] |169| 
         0000e8 0030 
    2472 0000ea 525F          ADD.B     &_C+0,r15             ; [] |169| 
         0000ec 0000!
    2473 0000ee 4FC2          MOV.B     r15,&aux_char+3       ; [] |169| 
         0000f0 0003!
    2474                    .dwpsn  file "..\CDC.h",line 170,column 2,is_stmt,isa 0
    2475 0000f2 403F          MOV.W     #48,r15               ; [] |170| 
         0000f4 0030 
    2476 0000f6 525F          ADD.B     &_D+0,r15             ; [] |170| 
         0000f8 0000!
    2477 0000fa 4FC2          MOV.B     r15,&aux_char+4       ; [] |170| 
         0000fc 0004!
    2478                    .dwpsn  file "..\CDC.h",line 171,column 2,is_stmt,isa 0
    2479 0000fe 403F          MOV.W     #48,r15               ; [] |171| 
         000100 0030 
    2480 000102 525F          ADD.B     &_U+0,r15             ; [] |171| 
         000104 0000!
    2481 000106 4FC2          MOV.B     r15,&aux_char+5       ; [] |171| 
         000108 0005!
    2482                    .dwpsn  file "..\CDC.h",line 172,column 2,is_stmt,isa 0
    2483 00010a 403C          MOV.W     #aux_char+0,r12       ; [] |172| 
         00010c 0000!
    2484            $C$DW$198       .dwtag  DW_TAG_TI_branch
    2485                    .dwattr $C$DW$198, DW_AT_low_pc(0x00)
    2486                    .dwattr $C$DW$198, DW_AT_name("ec")
    2487                    .dwattr $C$DW$198, DW_AT_TI_call
    2488 00010e 12B0          CALL      #ec                   ; [] |172| 
         000110 0000!
    2489                                                      ; [] |172| 
    2490                    .dwpsn  file "..\CDC.h",line 173,column 1,is_stmt,isa 0
    2491            $C$DW$199       .dwtag  DW_TAG_TI_branch
    2492                    .dwattr $C$DW$199, DW_AT_low_pc(0x00)
    2493                    .dwattr $C$DW$199, DW_AT_TI_return
    2494 000112 4130          RET       ; [] 
    2495                    ; [] 
MSP430 Assembler PC v4.2.1 Sat Jan 28 11:33:39 2017

Tools Copyright (c) 2003-2013 Texas Instruments Incorporated
C:\Users\mauricio\AppData\Local\Temp\0410010                         PAGE   53

    2496                    .dwattr $C$DW$180, DW_AT_TI_end_file("..\CDC.h")
    2497                    .dwattr $C$DW$180, DW_AT_TI_end_line(0xad)
    2498                    .dwattr $C$DW$180, DW_AT_TI_end_column(0x01)
    2499                    .dwendentry
    2500                    .dwendtag $C$DW$180
    2501            
    2502 000000               .sect   ".text:printchar2c"
    2503                    .align  2
    2504                    .clink
    2505                    .global printchar2c
    2506            
    2507            $C$DW$200       .dwtag  DW_TAG_subprogram, DW_AT_name("printchar2c")
    2508                    .dwattr $C$DW$200, DW_AT_low_pc(printchar2c)
    2509                    .dwattr $C$DW$200, DW_AT_high_pc(0x00)
    2510                    .dwattr $C$DW$200, DW_AT_TI_symbol_name("printchar2c")
    2511                    .dwattr $C$DW$200, DW_AT_external
    2512                    .dwattr $C$DW$200, DW_AT_TI_begin_file("..\CDC.h")
    2513                    .dwattr $C$DW$200, DW_AT_TI_begin_line(0xaf)
    2514                    .dwattr $C$DW$200, DW_AT_TI_begin_column(0x06)
    2515                    .dwattr $C$DW$200, DW_AT_decl_file("..\CDC.h")
    2516                    .dwattr $C$DW$200, DW_AT_decl_line(0xaf)
    2517                    .dwattr $C$DW$200, DW_AT_decl_column(0x06)
    2518                    .dwattr $C$DW$200, DW_AT_TI_max_frame_size(0x02)
    2519                    .dwpsn  file "..\CDC.h",line 176,column 1,is_stmt,address printchar2c,isa 0
    2520            
    2521                    .dwfde $C$DW$CIE, printchar2c
    2522            $C$DW$201       .dwtag  DW_TAG_formal_parameter, DW_AT_name("int2cchar")
    2523                    .dwattr $C$DW$201, DW_AT_TI_symbol_name("int2cchar")
    2524                    .dwattr $C$DW$201, DW_AT_type(*$C$DW$T$11)
    2525                    .dwattr $C$DW$201, DW_AT_location[DW_OP_reg12]
    2526            
    2527            ;*****************************************************************************
    2528            ;* FUNCTION NAME: printchar2c                                                *
    2529            ;*                                                                           *
    2530            ;*   Regs Modified     : SP,SR,r11,r12,r13,r14,r15                           *
    2531            ;*   Regs Used         : SP,SR,r11,r12,r13,r14,r15                           *
    2532            ;*   Local Frame Size  : 0 Args + 0 Auto + 0 Save = 0 byte                   *
    2533            ;*****************************************************************************
    2534 000000       printchar2c:
    2535            ;* --------------------------------------------------------------------------*
    2536                    .dwcfi  cfa_offset, 2
    2537                    .dwcfi  save_reg_to_mem, 16, -2
    2538            ;* r11   assigned to int2cchar
    2539            $C$DW$202       .dwtag  DW_TAG_variable, DW_AT_name("int2cchar")
    2540                    .dwattr $C$DW$202, DW_AT_TI_symbol_name("int2cchar")
    2541                    .dwattr $C$DW$202, DW_AT_type(*$C$DW$T$11)
    2542                    .dwattr $C$DW$202, DW_AT_location[DW_OP_reg11]
    2543 000000 4C0B          MOV.W     r12,r11               ; [] |176| 
    2544                    .dwpsn  file "..\CDC.h",line 179,column 2,is_stmt,isa 0
    2545 000002 E33B          INV.W     r11                   ; [] |179| 
    2546 000004 531B          ADD.W     #1,r11                ; [] |179| 
    2547                    .dwpsn  file "..\CDC.h",line 180,column 2,is_stmt,isa 0
    2548 000006 4B0C          MOV.W     r11,r12               ; [] |180| 
    2549 000008 403D          MOV.W     #10000,r13            ; [] |180| 
         00000a 2710 
MSP430 Assembler PC v4.2.1 Sat Jan 28 11:33:39 2017

Tools Copyright (c) 2003-2013 Texas Instruments Incorporated
C:\Users\mauricio\AppData\Local\Temp\0410010                         PAGE   54

    2550            $C$DW$203       .dwtag  DW_TAG_TI_branch
    2551                    .dwattr $C$DW$203, DW_AT_low_pc(0x00)
    2552                    .dwattr $C$DW$203, DW_AT_name("__mspabi_divu")
    2553                    .dwattr $C$DW$203, DW_AT_TI_call
    2554 00000c 12B0          CALL      #__mspabi_divu        ; [] |180| 
         00000e 0000!
    2555                                                      ; [] |180| 
    2556 000010 4CC2          MOV.B     r12,&_DM+0            ; [] |180| 
         000012 0000!
    2557                    .dwpsn  file "..\CDC.h",line 181,column 2,is_stmt,isa 0
    2558 000014 425C          MOV.B     &_DM+0,r12            ; [] |181| 
         000016 0000!
    2559 000018 403D          MOV.W     #10000,r13            ; [] |181| 
         00001a 2710 
    2560            $C$DW$204       .dwtag  DW_TAG_TI_branch
    2561                    .dwattr $C$DW$204, DW_AT_low_pc(0x00)
    2562                    .dwattr $C$DW$204, DW_AT_name("__mspabi_mpyi")
    2563                    .dwattr $C$DW$204, DW_AT_TI_call
    2564 00001c 12B0          CALL      #__mspabi_mpyi        ; [] |181| 
         00001e 0000!
    2565                                                      ; [] |181| 
    2566 000020 4C0F          MOV.W     r12,r15               ; [] |181| 
    2567 000022 4B0C          MOV.W     r11,r12               ; [] |181| 
    2568 000024 8F0C          SUB.W     r15,r12               ; [] |181| 
    2569 000026 403D          MOV.W     #1000,r13             ; [] |181| 
         000028 03E8 
    2570            $C$DW$205       .dwtag  DW_TAG_TI_branch
    2571                    .dwattr $C$DW$205, DW_AT_low_pc(0x00)
    2572                    .dwattr $C$DW$205, DW_AT_name("__mspabi_divu")
    2573                    .dwattr $C$DW$205, DW_AT_TI_call
    2574 00002a 12B0          CALL      #__mspabi_divu        ; [] |181| 
         00002c 0000!
    2575                                                      ; [] |181| 
    2576 00002e 4CC2          MOV.B     r12,&_UM+0            ; [] |181| 
         000030 0000!
    2577                    .dwpsn  file "..\CDC.h",line 182,column 2,is_stmt,isa 0
    2578 000032 425C          MOV.B     &_DM+0,r12            ; [] |182| 
         000034 0000!
    2579 000036 403D          MOV.W     #10,r13               ; [] |182| 
         000038 000A 
    2580            $C$DW$206       .dwtag  DW_TAG_TI_branch
    2581                    .dwattr $C$DW$206, DW_AT_low_pc(0x00)
    2582                    .dwattr $C$DW$206, DW_AT_name("__mspabi_mpyi")
    2583                    .dwattr $C$DW$206, DW_AT_TI_call
    2584 00003a 12B0          CALL      #__mspabi_mpyi        ; [] |182| 
         00003c 0000!
    2585                                                      ; [] |182| 
    2586 00003e 425F          MOV.B     &_UM+0,r15            ; [] |182| 
         000040 0000!
    2587 000042 5F0C          ADD.W     r15,r12               ; [] |182| 
    2588 000044 403D          MOV.W     #1000,r13             ; [] |182| 
         000046 03E8 
    2589            $C$DW$207       .dwtag  DW_TAG_TI_branch
    2590                    .dwattr $C$DW$207, DW_AT_low_pc(0x00)
    2591                    .dwattr $C$DW$207, DW_AT_name("__mspabi_mpyi")
MSP430 Assembler PC v4.2.1 Sat Jan 28 11:33:39 2017

Tools Copyright (c) 2003-2013 Texas Instruments Incorporated
C:\Users\mauricio\AppData\Local\Temp\0410010                         PAGE   55

    2592                    .dwattr $C$DW$207, DW_AT_TI_call
    2593 000048 12B0          CALL      #__mspabi_mpyi        ; [] |182| 
         00004a 0000!
    2594                                                      ; [] |182| 
    2595 00004c 4C0F          MOV.W     r12,r15               ; [] |182| 
    2596 00004e 4B0C          MOV.W     r11,r12               ; [] |182| 
    2597 000050 8F0C          SUB.W     r15,r12               ; [] |182| 
    2598 000052 403D          MOV.W     #100,r13              ; [] |182| 
         000054 0064 
    2599            $C$DW$208       .dwtag  DW_TAG_TI_branch
    2600                    .dwattr $C$DW$208, DW_AT_low_pc(0x00)
    2601                    .dwattr $C$DW$208, DW_AT_name("__mspabi_divu")
    2602                    .dwattr $C$DW$208, DW_AT_TI_call
    2603 000056 12B0          CALL      #__mspabi_divu        ; [] |182| 
         000058 0000!
    2604                                                      ; [] |182| 
    2605 00005a 4CC2          MOV.B     r12,&_C+0             ; [] |182| 
         00005c 0000!
    2606                    .dwpsn  file "..\CDC.h",line 183,column 2,is_stmt,isa 0
    2607 00005e 425C          MOV.B     &_DM+0,r12            ; [] |183| 
         000060 0000!
    2608 000062 403D          MOV.W     #10,r13               ; [] |183| 
         000064 000A 
    2609            $C$DW$209       .dwtag  DW_TAG_TI_branch
    2610                    .dwattr $C$DW$209, DW_AT_low_pc(0x00)
    2611                    .dwattr $C$DW$209, DW_AT_name("__mspabi_mpyi")
    2612                    .dwattr $C$DW$209, DW_AT_TI_call
    2613 000066 12B0          CALL      #__mspabi_mpyi        ; [] |183| 
         000068 0000!
    2614                                                      ; [] |183| 
    2615 00006a 425F          MOV.B     &_UM+0,r15            ; [] |183| 
         00006c 0000!
    2616 00006e 5F0C          ADD.W     r15,r12               ; [] |183| 
    2617 000070 403D          MOV.W     #10,r13               ; [] |183| 
         000072 000A 
    2618            $C$DW$210       .dwtag  DW_TAG_TI_branch
    2619                    .dwattr $C$DW$210, DW_AT_low_pc(0x00)
    2620                    .dwattr $C$DW$210, DW_AT_name("__mspabi_mpyi")
    2621                    .dwattr $C$DW$210, DW_AT_TI_call
    2622 000074 12B0          CALL      #__mspabi_mpyi        ; [] |183| 
         000076 0000!
    2623                                                      ; [] |183| 
    2624 000078 425F          MOV.B     &_C+0,r15             ; [] |183| 
         00007a 0000!
    2625 00007c 5F0C          ADD.W     r15,r12               ; [] |183| 
    2626 00007e 403D          MOV.W     #100,r13              ; [] |183| 
         000080 0064 
    2627            $C$DW$211       .dwtag  DW_TAG_TI_branch
    2628                    .dwattr $C$DW$211, DW_AT_low_pc(0x00)
    2629                    .dwattr $C$DW$211, DW_AT_name("__mspabi_mpyi")
    2630                    .dwattr $C$DW$211, DW_AT_TI_call
    2631 000082 12B0          CALL      #__mspabi_mpyi        ; [] |183| 
         000084 0000!
    2632                                                      ; [] |183| 
    2633 000086 4C0F          MOV.W     r12,r15               ; [] |183| 
MSP430 Assembler PC v4.2.1 Sat Jan 28 11:33:39 2017

Tools Copyright (c) 2003-2013 Texas Instruments Incorporated
C:\Users\mauricio\AppData\Local\Temp\0410010                         PAGE   56

    2634 000088 4B0C          MOV.W     r11,r12               ; [] |183| 
    2635 00008a 8F0C          SUB.W     r15,r12               ; [] |183| 
    2636 00008c 403D          MOV.W     #10,r13               ; [] |183| 
         00008e 000A 
    2637            $C$DW$212       .dwtag  DW_TAG_TI_branch
    2638                    .dwattr $C$DW$212, DW_AT_low_pc(0x00)
    2639                    .dwattr $C$DW$212, DW_AT_name("__mspabi_divu")
    2640                    .dwattr $C$DW$212, DW_AT_TI_call
    2641 000090 12B0          CALL      #__mspabi_divu        ; [] |183| 
         000092 0000!
    2642                                                      ; [] |183| 
    2643 000094 4CC2          MOV.B     r12,&_D+0             ; [] |183| 
         000096 0000!
    2644                    .dwpsn  file "..\CDC.h",line 184,column 2,is_stmt,isa 0
    2645 000098 425C          MOV.B     &_DM+0,r12            ; [] |184| 
         00009a 0000!
    2646 00009c 403D          MOV.W     #10,r13               ; [] |184| 
         00009e 000A 
    2647            $C$DW$213       .dwtag  DW_TAG_TI_branch
    2648                    .dwattr $C$DW$213, DW_AT_low_pc(0x00)
    2649                    .dwattr $C$DW$213, DW_AT_name("__mspabi_mpyi")
    2650                    .dwattr $C$DW$213, DW_AT_TI_call
    2651 0000a0 12B0          CALL      #__mspabi_mpyi        ; [] |184| 
         0000a2 0000!
    2652                                                      ; [] |184| 
    2653            ;* --------------------------------------------------------------------------*
    2654 0000a4 425F          MOV.B     &_UM+0,r15            ; [] |184| 
         0000a6 0000!
    2655 0000a8 5F0C          ADD.W     r15,r12               ; [] |184| 
    2656 0000aa 403D          MOV.W     #10,r13               ; [] |184| 
         0000ac 000A 
    2657            $C$DW$214       .dwtag  DW_TAG_TI_branch
    2658                    .dwattr $C$DW$214, DW_AT_low_pc(0x00)
    2659                    .dwattr $C$DW$214, DW_AT_name("__mspabi_mpyi")
    2660                    .dwattr $C$DW$214, DW_AT_TI_call
    2661 0000ae 12B0          CALL      #__mspabi_mpyi        ; [] |184| 
         0000b0 0000!
    2662                                                      ; [] |184| 
    2663 0000b2 425F          MOV.B     &_C+0,r15             ; [] |184| 
         0000b4 0000!
    2664 0000b6 5F0C          ADD.W     r15,r12               ; [] |184| 
    2665 0000b8 403D          MOV.W     #10,r13               ; [] |184| 
         0000ba 000A 
    2666            $C$DW$215       .dwtag  DW_TAG_TI_branch
    2667                    .dwattr $C$DW$215, DW_AT_low_pc(0x00)
    2668                    .dwattr $C$DW$215, DW_AT_name("__mspabi_mpyi")
    2669                    .dwattr $C$DW$215, DW_AT_TI_call
    2670 0000bc 12B0          CALL      #__mspabi_mpyi        ; [] |184| 
         0000be 0000!
    2671                                                      ; [] |184| 
    2672 0000c0 425F          MOV.B     &_D+0,r15             ; [] |184| 
         0000c2 0000!
    2673 0000c4 5F0C          ADD.W     r15,r12               ; [] |184| 
    2674 0000c6 403D          MOV.W     #10,r13               ; [] |184| 
         0000c8 000A 
MSP430 Assembler PC v4.2.1 Sat Jan 28 11:33:39 2017

Tools Copyright (c) 2003-2013 Texas Instruments Incorporated
C:\Users\mauricio\AppData\Local\Temp\0410010                         PAGE   57

    2675            $C$DW$216       .dwtag  DW_TAG_TI_branch
    2676                    .dwattr $C$DW$216, DW_AT_low_pc(0x00)
    2677                    .dwattr $C$DW$216, DW_AT_name("__mspabi_mpyi")
    2678                    .dwattr $C$DW$216, DW_AT_TI_call
    2679 0000ca 12B0          CALL      #__mspabi_mpyi        ; [] |184| 
         0000cc 0000!
    2680                                                      ; [] |184| 
    2681 0000ce 8C4B          SUB.B     r12,r11               ; [] |184| 
    2682 0000d0 4BC2          MOV.B     r11,&_U+0             ; [] |184| 
         0000d2 0000!
    2683                    .dwpsn  file "..\CDC.h",line 186,column 2,is_stmt,isa 0
    2684 0000d4 403F          MOV.W     #48,r15               ; [] |186| 
         0000d6 0030 
    2685 0000d8 525F          ADD.B     &_DM+0,r15            ; [] |186| 
         0000da 0000!
    2686 0000dc 4FC2          MOV.B     r15,&aux_char+1       ; [] |186| 
         0000de 0001!
    2687                    .dwpsn  file "..\CDC.h",line 187,column 2,is_stmt,isa 0
    2688 0000e0 403F          MOV.W     #48,r15               ; [] |187| 
         0000e2 0030 
    2689 0000e4 525F          ADD.B     &_UM+0,r15            ; [] |187| 
         0000e6 0000!
    2690 0000e8 4FC2          MOV.B     r15,&aux_char+2       ; [] |187| 
         0000ea 0002!
    2691                    .dwpsn  file "..\CDC.h",line 188,column 2,is_stmt,isa 0
    2692 0000ec 403F          MOV.W     #48,r15               ; [] |188| 
         0000ee 0030 
    2693 0000f0 525F          ADD.B     &_C+0,r15             ; [] |188| 
         0000f2 0000!
    2694 0000f4 4FC2          MOV.B     r15,&aux_char+3       ; [] |188| 
         0000f6 0003!
    2695                    .dwpsn  file "..\CDC.h",line 189,column 2,is_stmt,isa 0
    2696 0000f8 403F          MOV.W     #48,r15               ; [] |189| 
         0000fa 0030 
    2697 0000fc 525F          ADD.B     &_D+0,r15             ; [] |189| 
         0000fe 0000!
    2698 000100 4FC2          MOV.B     r15,&aux_char+4       ; [] |189| 
         000102 0004!
    2699                    .dwpsn  file "..\CDC.h",line 190,column 2,is_stmt,isa 0
    2700 000104 403F          MOV.W     #48,r15               ; [] |190| 
         000106 0030 
    2701 000108 525F          ADD.B     &_U+0,r15             ; [] |190| 
         00010a 0000!
    2702 00010c 4FC2          MOV.B     r15,&aux_char+5       ; [] |190| 
         00010e 0005!
    2703                    .dwpsn  file "..\CDC.h",line 191,column 2,is_stmt,isa 0
    2704 000110 403C          MOV.W     #aux_char+0,r12       ; [] |191| 
         000112 0000!
    2705            $C$DW$217       .dwtag  DW_TAG_TI_branch
    2706                    .dwattr $C$DW$217, DW_AT_low_pc(0x00)
    2707                    .dwattr $C$DW$217, DW_AT_name("ec")
    2708                    .dwattr $C$DW$217, DW_AT_TI_call
    2709 000114 12B0          CALL      #ec                   ; [] |191| 
         000116 0000!
    2710                                                      ; [] |191| 
MSP430 Assembler PC v4.2.1 Sat Jan 28 11:33:39 2017

Tools Copyright (c) 2003-2013 Texas Instruments Incorporated
C:\Users\mauricio\AppData\Local\Temp\0410010                         PAGE   58

    2711                    .dwpsn  file "..\CDC.h",line 192,column 1,is_stmt,isa 0
    2712            $C$DW$218       .dwtag  DW_TAG_TI_branch
    2713                    .dwattr $C$DW$218, DW_AT_low_pc(0x00)
    2714                    .dwattr $C$DW$218, DW_AT_TI_return
    2715 000118 4130          RET       ; [] 
    2716                    ; [] 
    2717                    .dwattr $C$DW$200, DW_AT_TI_end_file("..\CDC.h")
    2718                    .dwattr $C$DW$200, DW_AT_TI_end_line(0xc0)
    2719                    .dwattr $C$DW$200, DW_AT_TI_end_column(0x01)
    2720                    .dwendentry
    2721                    .dwendtag $C$DW$200
    2722            
    2723 000000               .sect   ".text:p_ui"
    2724                    .align  2
    2725                    .clink
    2726                    .global p_ui
    2727            
    2728            $C$DW$219       .dwtag  DW_TAG_subprogram, DW_AT_name("p_ui")
    2729                    .dwattr $C$DW$219, DW_AT_low_pc(p_ui)
    2730                    .dwattr $C$DW$219, DW_AT_high_pc(0x00)
    2731                    .dwattr $C$DW$219, DW_AT_TI_symbol_name("p_ui")
    2732                    .dwattr $C$DW$219, DW_AT_external
    2733                    .dwattr $C$DW$219, DW_AT_TI_begin_file("..\CDC.h")
    2734                    .dwattr $C$DW$219, DW_AT_TI_begin_line(0xc3)
    2735                    .dwattr $C$DW$219, DW_AT_TI_begin_column(0x06)
    2736                    .dwattr $C$DW$219, DW_AT_decl_file("..\CDC.h")
    2737                    .dwattr $C$DW$219, DW_AT_decl_line(0xc3)
    2738                    .dwattr $C$DW$219, DW_AT_decl_column(0x06)
    2739                    .dwattr $C$DW$219, DW_AT_TI_max_frame_size(0x02)
    2740                    .dwpsn  file "..\CDC.h",line 196,column 1,is_stmt,address p_ui,isa 0
    2741            
    2742                    .dwfde $C$DW$CIE, p_ui
    2743            $C$DW$220       .dwtag  DW_TAG_formal_parameter, DW_AT_name("intchar1")
    2744                    .dwattr $C$DW$220, DW_AT_TI_symbol_name("intchar1")
    2745                    .dwattr $C$DW$220, DW_AT_type(*$C$DW$T$11)
    2746                    .dwattr $C$DW$220, DW_AT_location[DW_OP_reg12]
    2747            
    2748            ;*****************************************************************************
    2749            ;* FUNCTION NAME: p_ui                                                       *
    2750            ;*                                                                           *
    2751            ;*   Regs Modified     : SP,SR,r11,r12,r13,r14,r15                           *
    2752            ;*   Regs Used         : SP,SR,r11,r12,r13,r14,r15                           *
    2753            ;*   Local Frame Size  : 0 Args + 0 Auto + 0 Save = 0 byte                   *
    2754            ;*****************************************************************************
    2755 000000       p_ui:
    2756            ;* --------------------------------------------------------------------------*
    2757                    .dwcfi  cfa_offset, 2
    2758                    .dwcfi  save_reg_to_mem, 16, -2
    2759            ;* r11   assigned to intchar1
    2760            $C$DW$221       .dwtag  DW_TAG_variable, DW_AT_name("intchar1")
    2761                    .dwattr $C$DW$221, DW_AT_TI_symbol_name("intchar1")
    2762                    .dwattr $C$DW$221, DW_AT_type(*$C$DW$T$11)
    2763                    .dwattr $C$DW$221, DW_AT_location[DW_OP_reg11]
    2764 000000 4C0B          MOV.W     r12,r11               ; [] |196| 
    2765                    .dwpsn  file "..\CDC.h",line 197,column 2,is_stmt,isa 0
MSP430 Assembler PC v4.2.1 Sat Jan 28 11:33:39 2017

Tools Copyright (c) 2003-2013 Texas Instruments Incorporated
C:\Users\mauricio\AppData\Local\Temp\0410010                         PAGE   59

    2766 000002 403D          MOV.W     #10000,r13            ; [] |197| 
         000004 2710 
    2767            $C$DW$222       .dwtag  DW_TAG_TI_branch
    2768                    .dwattr $C$DW$222, DW_AT_low_pc(0x00)
    2769                    .dwattr $C$DW$222, DW_AT_name("__mspabi_divu")
    2770                    .dwattr $C$DW$222, DW_AT_TI_call
    2771 000006 12B0          CALL      #__mspabi_divu        ; [] |197| 
         000008 0000!
    2772                                                      ; [] |197| 
    2773 00000a 4CC2          MOV.B     r12,&_DM+0            ; [] |197| 
         00000c 0000!
    2774                    .dwpsn  file "..\CDC.h",line 198,column 2,is_stmt,isa 0
    2775 00000e 425C          MOV.B     &_DM+0,r12            ; [] |198| 
         000010 0000!
    2776 000012 403D          MOV.W     #10000,r13            ; [] |198| 
         000014 2710 
    2777            $C$DW$223       .dwtag  DW_TAG_TI_branch
    2778                    .dwattr $C$DW$223, DW_AT_low_pc(0x00)
    2779                    .dwattr $C$DW$223, DW_AT_name("__mspabi_mpyi")
    2780                    .dwattr $C$DW$223, DW_AT_TI_call
    2781 000016 12B0          CALL      #__mspabi_mpyi        ; [] |198| 
         000018 0000!
    2782                                                      ; [] |198| 
    2783 00001a 4C0F          MOV.W     r12,r15               ; [] |198| 
    2784 00001c 4B0C          MOV.W     r11,r12               ; [] |198| 
    2785 00001e 8F0C          SUB.W     r15,r12               ; [] |198| 
    2786 000020 403D          MOV.W     #1000,r13             ; [] |198| 
         000022 03E8 
    2787            $C$DW$224       .dwtag  DW_TAG_TI_branch
    2788                    .dwattr $C$DW$224, DW_AT_low_pc(0x00)
    2789                    .dwattr $C$DW$224, DW_AT_name("__mspabi_divu")
    2790                    .dwattr $C$DW$224, DW_AT_TI_call
    2791 000024 12B0          CALL      #__mspabi_divu        ; [] |198| 
         000026 0000!
    2792                                                      ; [] |198| 
    2793 000028 4CC2          MOV.B     r12,&_UM+0            ; [] |198| 
         00002a 0000!
    2794                    .dwpsn  file "..\CDC.h",line 199,column 2,is_stmt,isa 0
    2795 00002c 425C          MOV.B     &_DM+0,r12            ; [] |199| 
         00002e 0000!
    2796 000030 403D          MOV.W     #10,r13               ; [] |199| 
         000032 000A 
    2797            $C$DW$225       .dwtag  DW_TAG_TI_branch
    2798                    .dwattr $C$DW$225, DW_AT_low_pc(0x00)
    2799                    .dwattr $C$DW$225, DW_AT_name("__mspabi_mpyi")
    2800                    .dwattr $C$DW$225, DW_AT_TI_call
    2801 000034 12B0          CALL      #__mspabi_mpyi        ; [] |199| 
         000036 0000!
    2802                                                      ; [] |199| 
    2803 000038 425F          MOV.B     &_UM+0,r15            ; [] |199| 
         00003a 0000!
    2804 00003c 5F0C          ADD.W     r15,r12               ; [] |199| 
    2805 00003e 403D          MOV.W     #1000,r13             ; [] |199| 
         000040 03E8 
    2806            $C$DW$226       .dwtag  DW_TAG_TI_branch
MSP430 Assembler PC v4.2.1 Sat Jan 28 11:33:39 2017

Tools Copyright (c) 2003-2013 Texas Instruments Incorporated
C:\Users\mauricio\AppData\Local\Temp\0410010                         PAGE   60

    2807                    .dwattr $C$DW$226, DW_AT_low_pc(0x00)
    2808                    .dwattr $C$DW$226, DW_AT_name("__mspabi_mpyi")
    2809                    .dwattr $C$DW$226, DW_AT_TI_call
    2810 000042 12B0          CALL      #__mspabi_mpyi        ; [] |199| 
         000044 0000!
    2811                                                      ; [] |199| 
    2812 000046 4C0F          MOV.W     r12,r15               ; [] |199| 
    2813 000048 4B0C          MOV.W     r11,r12               ; [] |199| 
    2814 00004a 8F0C          SUB.W     r15,r12               ; [] |199| 
    2815 00004c 403D          MOV.W     #100,r13              ; [] |199| 
         00004e 0064 
    2816            $C$DW$227       .dwtag  DW_TAG_TI_branch
    2817                    .dwattr $C$DW$227, DW_AT_low_pc(0x00)
    2818                    .dwattr $C$DW$227, DW_AT_name("__mspabi_divu")
    2819                    .dwattr $C$DW$227, DW_AT_TI_call
    2820 000050 12B0          CALL      #__mspabi_divu        ; [] |199| 
         000052 0000!
    2821                                                      ; [] |199| 
    2822 000054 4CC2          MOV.B     r12,&_C+0             ; [] |199| 
         000056 0000!
    2823                    .dwpsn  file "..\CDC.h",line 200,column 2,is_stmt,isa 0
    2824 000058 425C          MOV.B     &_DM+0,r12            ; [] |200| 
         00005a 0000!
    2825 00005c 403D          MOV.W     #10,r13               ; [] |200| 
         00005e 000A 
    2826            $C$DW$228       .dwtag  DW_TAG_TI_branch
    2827                    .dwattr $C$DW$228, DW_AT_low_pc(0x00)
    2828                    .dwattr $C$DW$228, DW_AT_name("__mspabi_mpyi")
    2829                    .dwattr $C$DW$228, DW_AT_TI_call
    2830 000060 12B0          CALL      #__mspabi_mpyi        ; [] |200| 
         000062 0000!
    2831                                                      ; [] |200| 
    2832 000064 425F          MOV.B     &_UM+0,r15            ; [] |200| 
         000066 0000!
    2833 000068 5F0C          ADD.W     r15,r12               ; [] |200| 
    2834 00006a 403D          MOV.W     #10,r13               ; [] |200| 
         00006c 000A 
    2835            $C$DW$229       .dwtag  DW_TAG_TI_branch
    2836                    .dwattr $C$DW$229, DW_AT_low_pc(0x00)
    2837                    .dwattr $C$DW$229, DW_AT_name("__mspabi_mpyi")
    2838                    .dwattr $C$DW$229, DW_AT_TI_call
    2839 00006e 12B0          CALL      #__mspabi_mpyi        ; [] |200| 
         000070 0000!
    2840                                                      ; [] |200| 
    2841 000072 425F          MOV.B     &_C+0,r15             ; [] |200| 
         000074 0000!
    2842 000076 5F0C          ADD.W     r15,r12               ; [] |200| 
    2843 000078 403D          MOV.W     #100,r13              ; [] |200| 
         00007a 0064 
    2844            $C$DW$230       .dwtag  DW_TAG_TI_branch
    2845                    .dwattr $C$DW$230, DW_AT_low_pc(0x00)
    2846                    .dwattr $C$DW$230, DW_AT_name("__mspabi_mpyi")
    2847                    .dwattr $C$DW$230, DW_AT_TI_call
    2848 00007c 12B0          CALL      #__mspabi_mpyi        ; [] |200| 
         00007e 0000!
MSP430 Assembler PC v4.2.1 Sat Jan 28 11:33:39 2017

Tools Copyright (c) 2003-2013 Texas Instruments Incorporated
C:\Users\mauricio\AppData\Local\Temp\0410010                         PAGE   61

    2849                                                      ; [] |200| 
    2850 000080 4C0F          MOV.W     r12,r15               ; [] |200| 
    2851 000082 4B0C          MOV.W     r11,r12               ; [] |200| 
    2852 000084 8F0C          SUB.W     r15,r12               ; [] |200| 
    2853 000086 403D          MOV.W     #10,r13               ; [] |200| 
         000088 000A 
    2854            $C$DW$231       .dwtag  DW_TAG_TI_branch
    2855                    .dwattr $C$DW$231, DW_AT_low_pc(0x00)
    2856                    .dwattr $C$DW$231, DW_AT_name("__mspabi_divu")
    2857                    .dwattr $C$DW$231, DW_AT_TI_call
    2858 00008a 12B0          CALL      #__mspabi_divu        ; [] |200| 
         00008c 0000!
    2859                                                      ; [] |200| 
    2860 00008e 4CC2          MOV.B     r12,&_D+0             ; [] |200| 
         000090 0000!
    2861                    .dwpsn  file "..\CDC.h",line 201,column 2,is_stmt,isa 0
    2862 000092 425C          MOV.B     &_DM+0,r12            ; [] |201| 
         000094 0000!
    2863 000096 403D          MOV.W     #10,r13               ; [] |201| 
         000098 000A 
    2864            $C$DW$232       .dwtag  DW_TAG_TI_branch
    2865                    .dwattr $C$DW$232, DW_AT_low_pc(0x00)
    2866                    .dwattr $C$DW$232, DW_AT_name("__mspabi_mpyi")
    2867                    .dwattr $C$DW$232, DW_AT_TI_call
    2868 00009a 12B0          CALL      #__mspabi_mpyi        ; [] |201| 
         00009c 0000!
    2869                                                      ; [] |201| 
    2870            ;* --------------------------------------------------------------------------*
    2871 00009e 425F          MOV.B     &_UM+0,r15            ; [] |201| 
         0000a0 0000!
    2872 0000a2 5F0C          ADD.W     r15,r12               ; [] |201| 
    2873 0000a4 403D          MOV.W     #10,r13               ; [] |201| 
         0000a6 000A 
    2874            $C$DW$233       .dwtag  DW_TAG_TI_branch
    2875                    .dwattr $C$DW$233, DW_AT_low_pc(0x00)
    2876                    .dwattr $C$DW$233, DW_AT_name("__mspabi_mpyi")
    2877                    .dwattr $C$DW$233, DW_AT_TI_call
    2878 0000a8 12B0          CALL      #__mspabi_mpyi        ; [] |201| 
         0000aa 0000!
    2879                                                      ; [] |201| 
    2880 0000ac 425F          MOV.B     &_C+0,r15             ; [] |201| 
         0000ae 0000!
    2881 0000b0 5F0C          ADD.W     r15,r12               ; [] |201| 
    2882 0000b2 403D          MOV.W     #10,r13               ; [] |201| 
         0000b4 000A 
    2883            $C$DW$234       .dwtag  DW_TAG_TI_branch
    2884                    .dwattr $C$DW$234, DW_AT_low_pc(0x00)
    2885                    .dwattr $C$DW$234, DW_AT_name("__mspabi_mpyi")
    2886                    .dwattr $C$DW$234, DW_AT_TI_call
    2887 0000b6 12B0          CALL      #__mspabi_mpyi        ; [] |201| 
         0000b8 0000!
    2888                                                      ; [] |201| 
    2889 0000ba 425F          MOV.B     &_D+0,r15             ; [] |201| 
         0000bc 0000!
    2890 0000be 5F0C          ADD.W     r15,r12               ; [] |201| 
MSP430 Assembler PC v4.2.1 Sat Jan 28 11:33:39 2017

Tools Copyright (c) 2003-2013 Texas Instruments Incorporated
C:\Users\mauricio\AppData\Local\Temp\0410010                         PAGE   62

    2891 0000c0 403D          MOV.W     #10,r13               ; [] |201| 
         0000c2 000A 
    2892            $C$DW$235       .dwtag  DW_TAG_TI_branch
    2893                    .dwattr $C$DW$235, DW_AT_low_pc(0x00)
    2894                    .dwattr $C$DW$235, DW_AT_name("__mspabi_mpyi")
    2895                    .dwattr $C$DW$235, DW_AT_TI_call
    2896 0000c4 12B0          CALL      #__mspabi_mpyi        ; [] |201| 
         0000c6 0000!
    2897                                                      ; [] |201| 
    2898 0000c8 8C4B          SUB.B     r12,r11               ; [] |201| 
    2899 0000ca 4BC2          MOV.B     r11,&_U+0             ; [] |201| 
         0000cc 0000!
    2900                    .dwpsn  file "..\CDC.h",line 203,column 2,is_stmt,isa 0
    2901 0000ce 403F          MOV.W     #48,r15               ; [] |203| 
         0000d0 0030 
    2902 0000d2 525F          ADD.B     &_DM+0,r15            ; [] |203| 
         0000d4 0000!
    2903 0000d6 4FC2          MOV.B     r15,&aux_char+1       ; [] |203| 
         0000d8 0001!
    2904                    .dwpsn  file "..\CDC.h",line 204,column 2,is_stmt,isa 0
    2905 0000da 403F          MOV.W     #48,r15               ; [] |204| 
         0000dc 0030 
    2906 0000de 525F          ADD.B     &_UM+0,r15            ; [] |204| 
         0000e0 0000!
    2907 0000e2 4FC2          MOV.B     r15,&aux_char+2       ; [] |204| 
         0000e4 0002!
    2908                    .dwpsn  file "..\CDC.h",line 205,column 2,is_stmt,isa 0
    2909 0000e6 403F          MOV.W     #48,r15               ; [] |205| 
         0000e8 0030 
    2910 0000ea 525F          ADD.B     &_C+0,r15             ; [] |205| 
         0000ec 0000!
    2911 0000ee 4FC2          MOV.B     r15,&aux_char+3       ; [] |205| 
         0000f0 0003!
    2912                    .dwpsn  file "..\CDC.h",line 206,column 2,is_stmt,isa 0
    2913 0000f2 403F          MOV.W     #48,r15               ; [] |206| 
         0000f4 0030 
    2914 0000f6 525F          ADD.B     &_D+0,r15             ; [] |206| 
         0000f8 0000!
    2915 0000fa 4FC2          MOV.B     r15,&aux_char+4       ; [] |206| 
         0000fc 0004!
    2916                    .dwpsn  file "..\CDC.h",line 207,column 2,is_stmt,isa 0
    2917 0000fe 403F          MOV.W     #48,r15               ; [] |207| 
         000100 0030 
    2918 000102 525F          ADD.B     &_U+0,r15             ; [] |207| 
         000104 0000!
    2919 000106 4FC2          MOV.B     r15,&aux_char+5       ; [] |207| 
         000108 0005!
    2920                    .dwpsn  file "..\CDC.h",line 208,column 2,is_stmt,isa 0
    2921 00010a 40F2          MOV.B     #48,&aux_char+0       ; [] |208| 
         00010c 0030 
         00010e 0000!
    2922                    .dwpsn  file "..\CDC.h",line 209,column 2,is_stmt,isa 0
    2923 000110 403C          MOV.W     #aux_char+0,r12       ; [] |209| 
         000112 0000!
    2924            $C$DW$236       .dwtag  DW_TAG_TI_branch
MSP430 Assembler PC v4.2.1 Sat Jan 28 11:33:39 2017

Tools Copyright (c) 2003-2013 Texas Instruments Incorporated
C:\Users\mauricio\AppData\Local\Temp\0410010                         PAGE   63

    2925                    .dwattr $C$DW$236, DW_AT_low_pc(0x00)
    2926                    .dwattr $C$DW$236, DW_AT_name("ec")
    2927                    .dwattr $C$DW$236, DW_AT_TI_call
    2928 000114 12B0          CALL      #ec                   ; [] |209| 
         000116 0000!
    2929                                                      ; [] |209| 
    2930                    .dwpsn  file "..\CDC.h",line 210,column 1,is_stmt,isa 0
    2931            $C$DW$237       .dwtag  DW_TAG_TI_branch
    2932                    .dwattr $C$DW$237, DW_AT_low_pc(0x00)
    2933                    .dwattr $C$DW$237, DW_AT_TI_return
    2934 000118 4130          RET       ; [] 
    2935                    ; [] 
    2936                    .dwattr $C$DW$219, DW_AT_TI_end_file("..\CDC.h")
    2937                    .dwattr $C$DW$219, DW_AT_TI_end_line(0xd2)
    2938                    .dwattr $C$DW$219, DW_AT_TI_end_column(0x01)
    2939                    .dwendentry
    2940                    .dwendtag $C$DW$219
    2941            
    2942 000000               .sect   ".text:printfloat"
    2943                    .align  2
    2944                    .clink
    2945                    .global printfloat
    2946            
    2947            $C$DW$238       .dwtag  DW_TAG_subprogram, DW_AT_name("printfloat")
    2948                    .dwattr $C$DW$238, DW_AT_low_pc(printfloat)
    2949                    .dwattr $C$DW$238, DW_AT_high_pc(0x00)
    2950                    .dwattr $C$DW$238, DW_AT_TI_symbol_name("printfloat")
    2951                    .dwattr $C$DW$238, DW_AT_external
    2952                    .dwattr $C$DW$238, DW_AT_TI_begin_file("..\CDC.h")
    2953                    .dwattr $C$DW$238, DW_AT_TI_begin_line(0xd4)
    2954                    .dwattr $C$DW$238, DW_AT_TI_begin_column(0x06)
    2955                    .dwattr $C$DW$238, DW_AT_decl_file("..\CDC.h")
    2956                    .dwattr $C$DW$238, DW_AT_decl_line(0xd4)
    2957                    .dwattr $C$DW$238, DW_AT_decl_column(0x06)
    2958                    .dwattr $C$DW$238, DW_AT_TI_max_frame_size(0x06)
    2959                    .dwpsn  file "..\CDC.h",line 213,column 1,is_stmt,address printfloat,isa 0
    2960            
    2961                    .dwfde $C$DW$CIE, printfloat
    2962            $C$DW$239       .dwtag  DW_TAG_formal_parameter, DW_AT_name("twoto3")
    2963                    .dwattr $C$DW$239, DW_AT_TI_symbol_name("twoto3")
    2964                    .dwattr $C$DW$239, DW_AT_type(*$C$DW$T$16)
    2965                    .dwattr $C$DW$239, DW_AT_location[DW_OP_reg12 DW_OP_piece 2 DW_OP_reg13 DW_OP_piece 2]
    2966            
    2967            ;*****************************************************************************
    2968            ;* FUNCTION NAME: printfloat                                                 *
    2969            ;*                                                                           *
    2970            ;*   Regs Modified     : SP,SR,r9,r10,r11,r12,r13,r14,r15                    *
    2971            ;*   Regs Used         : SP,SR,r9,r10,r11,r12,r13,r14,r15                    *
    2972            ;*   Local Frame Size  : 0 Args + 0 Auto + 4 Save = 4 byte                   *
    2973            ;*****************************************************************************
    2974 000000       printfloat:
    2975            ;* --------------------------------------------------------------------------*
    2976                    .dwcfi  cfa_offset, 2
    2977                    .dwcfi  save_reg_to_mem, 16, -2
    2978 000000 120A          PUSH.W    r10                   ; [] 
MSP430 Assembler PC v4.2.1 Sat Jan 28 11:33:39 2017

Tools Copyright (c) 2003-2013 Texas Instruments Incorporated
C:\Users\mauricio\AppData\Local\Temp\0410010                         PAGE   64

    2979                    .dwcfi  cfa_offset, 4
    2980                    .dwcfi  save_reg_to_mem, 10, -4
    2981 000002 1209          PUSH.W    r9                    ; [] 
    2982                    .dwcfi  cfa_offset, 6
    2983                    .dwcfi  save_reg_to_mem, 9, -6
    2984            ;* r9    assigned to twoto3
    2985            $C$DW$240       .dwtag  DW_TAG_variable, DW_AT_name("twoto3")
    2986                    .dwattr $C$DW$240, DW_AT_TI_symbol_name("twoto3")
    2987                    .dwattr $C$DW$240, DW_AT_type(*$C$DW$T$16)
    2988                    .dwattr $C$DW$240, DW_AT_location[DW_OP_reg9 DW_OP_piece 2 DW_OP_reg10 DW_OP_piece 2]
    2989 000004 4C09          MOV.W     r12,r9                ; [] |213| 
    2990 000006 4D0A          MOV.W     r13,r10               ; [] |213| 
    2991                    .dwpsn  file "..\CDC.h",line 214,column 2,is_stmt,isa 0
    2992            $C$DW$241       .dwtag  DW_TAG_TI_branch
    2993                    .dwattr $C$DW$241, DW_AT_low_pc(0x00)
    2994                    .dwattr $C$DW$241, DW_AT_name("__mspabi_fixfu")
    2995                    .dwattr $C$DW$241, DW_AT_TI_call
    2996 000008 12B0          CALL      #__mspabi_fixfu       ; [] |214| 
         00000a 0000!
    2997                                                      ; [] |214| 
    2998 00000c 4CC2          MOV.B     r12,&_UM+0            ; [] |214| 
         00000e 0000!
    2999                    .dwpsn  file "..\CDC.h",line 215,column 2,is_stmt,isa 0
    3000 000010 425C          MOV.B     &_UM+0,r12            ; [] |215| 
         000012 0000!
    3001            $C$DW$242       .dwtag  DW_TAG_TI_branch
    3002                    .dwattr $C$DW$242, DW_AT_low_pc(0x00)
    3003                    .dwattr $C$DW$242, DW_AT_name("__mspabi_fltuf")
    3004                    .dwattr $C$DW$242, DW_AT_TI_call
    3005 000014 12B0          CALL      #__mspabi_fltuf       ; [] |215| 
         000016 0000!
    3006                                                      ; [] |215| 
    3007 000018 4C0E          MOV.W     r12,r14               ; [] |215| 
    3008 00001a 4D0F          MOV.W     r13,r15               ; [] |215| 
    3009 00001c 490C          MOV.W     r9,r12                ; [] |215| 
    3010 00001e 4A0D          MOV.W     r10,r13               ; [] |215| 
    3011            $C$DW$243       .dwtag  DW_TAG_TI_branch
    3012                    .dwattr $C$DW$243, DW_AT_low_pc(0x00)
    3013                    .dwattr $C$DW$243, DW_AT_name("__mspabi_subf")
    3014                    .dwattr $C$DW$243, DW_AT_TI_call
    3015 000020 12B0          CALL      #__mspabi_subf        ; [] |215| 
         000022 0000!
    3016                                                      ; [] |215| 
    3017 000024 430E          MOV.W     #0,r14                ; [] |215| 
    3018 000026 403F          MOV.W     #17096,r15            ; [] |215| 
         000028 42C8 
    3019            $C$DW$244       .dwtag  DW_TAG_TI_branch
    3020                    .dwattr $C$DW$244, DW_AT_low_pc(0x00)
    3021                    .dwattr $C$DW$244, DW_AT_name("__mspabi_mpyf")
    3022                    .dwattr $C$DW$244, DW_AT_TI_call
    3023 00002a 12B0          CALL      #__mspabi_mpyf        ; [] |215| 
         00002c 0000!
    3024                                                      ; [] |215| 
    3025            $C$DW$245       .dwtag  DW_TAG_TI_branch
    3026                    .dwattr $C$DW$245, DW_AT_low_pc(0x00)
MSP430 Assembler PC v4.2.1 Sat Jan 28 11:33:39 2017

Tools Copyright (c) 2003-2013 Texas Instruments Incorporated
C:\Users\mauricio\AppData\Local\Temp\0410010                         PAGE   65

    3027                    .dwattr $C$DW$245, DW_AT_name("__mspabi_fixfu")
    3028                    .dwattr $C$DW$245, DW_AT_TI_call
    3029 00002e 12B0          CALL      #__mspabi_fixfu       ; [] |215| 
         000030 0000!
    3030                                                      ; [] |215| 
    3031 000032 4CC2          MOV.B     r12,&_UD+0            ; [] |215| 
         000034 0000!
    3032                    .dwpsn  file "..\CDC.h",line 216,column 2,is_stmt,isa 0
    3033 000036 425C          MOV.B     &_UM+0,r12            ; [] |216| 
         000038 0000!
    3034 00003a 403D          MOV.W     #100,r13              ; [] |216| 
         00003c 0064 
    3035            $C$DW$246       .dwtag  DW_TAG_TI_branch
    3036                    .dwattr $C$DW$246, DW_AT_low_pc(0x00)
    3037                    .dwattr $C$DW$246, DW_AT_name("__mspabi_divi")
    3038                    .dwattr $C$DW$246, DW_AT_TI_call
    3039 00003e 12B0          CALL      #__mspabi_divi        ; [] |216| 
         000040 0000!
    3040                                                      ; [] |216| 
    3041 000042 4CC2          MOV.B     r12,&_C+0             ; [] |216| 
         000044 0000!
    3042                    .dwpsn  file "..\CDC.h",line 217,column 2,is_stmt,isa 0
    3043 000046 425C          MOV.B     &_C+0,r12             ; [] |217| 
         000048 0000!
    3044 00004a 403D          MOV.W     #100,r13              ; [] |217| 
         00004c 0064 
    3045            $C$DW$247       .dwtag  DW_TAG_TI_branch
    3046                    .dwattr $C$DW$247, DW_AT_low_pc(0x00)
    3047                    .dwattr $C$DW$247, DW_AT_name("__mspabi_mpyi")
    3048                    .dwattr $C$DW$247, DW_AT_TI_call
    3049 00004e 12B0          CALL      #__mspabi_mpyi        ; [] |217| 
         000050 0000!
    3050                                                      ; [] |217| 
    3051 000052 4C0F          MOV.W     r12,r15               ; [] |217| 
    3052 000054 425C          MOV.B     &_UM+0,r12            ; [] |217| 
         000056 0000!
    3053 000058 8F0C          SUB.W     r15,r12               ; [] |217| 
    3054 00005a 403D          MOV.W     #10,r13               ; [] |217| 
         00005c 000A 
    3055            $C$DW$248       .dwtag  DW_TAG_TI_branch
    3056                    .dwattr $C$DW$248, DW_AT_low_pc(0x00)
    3057                    .dwattr $C$DW$248, DW_AT_name("__mspabi_divi")
    3058                    .dwattr $C$DW$248, DW_AT_TI_call
    3059 00005e 12B0          CALL      #__mspabi_divi        ; [] |217| 
         000060 0000!
    3060                                                      ; [] |217| 
    3061 000062 4CC2          MOV.B     r12,&_D+0             ; [] |217| 
         000064 0000!
    3062                    .dwpsn  file "..\CDC.h",line 218,column 2,is_stmt,isa 0
    3063 000066 425C          MOV.B     &_C+0,r12             ; [] |218| 
         000068 0000!
    3064 00006a 403D          MOV.W     #10,r13               ; [] |218| 
         00006c 000A 
    3065            $C$DW$249       .dwtag  DW_TAG_TI_branch
    3066                    .dwattr $C$DW$249, DW_AT_low_pc(0x00)
MSP430 Assembler PC v4.2.1 Sat Jan 28 11:33:39 2017

Tools Copyright (c) 2003-2013 Texas Instruments Incorporated
C:\Users\mauricio\AppData\Local\Temp\0410010                         PAGE   66

    3067                    .dwattr $C$DW$249, DW_AT_name("__mspabi_mpyi")
    3068                    .dwattr $C$DW$249, DW_AT_TI_call
    3069 00006e 12B0          CALL      #__mspabi_mpyi        ; [] |218| 
         000070 0000!
    3070                                                      ; [] |218| 
    3071 000072 425F          MOV.B     &_D+0,r15             ; [] |218| 
         000074 0000!
    3072 000076 5F0C          ADD.W     r15,r12               ; [] |218| 
    3073 000078 403D          MOV.W     #10,r13               ; [] |218| 
         00007a 000A 
    3074            $C$DW$250       .dwtag  DW_TAG_TI_branch
    3075                    .dwattr $C$DW$250, DW_AT_low_pc(0x00)
    3076                    .dwattr $C$DW$250, DW_AT_name("__mspabi_mpyi")
    3077                    .dwattr $C$DW$250, DW_AT_TI_call
    3078 00007c 12B0          CALL      #__mspabi_mpyi        ; [] |218| 
         00007e 0000!
    3079                                                      ; [] |218| 
    3080 000080 425F          MOV.B     &_UM+0,r15            ; [] |218| 
         000082 0000!
    3081 000084 8C4F          SUB.B     r12,r15               ; [] |218| 
    3082 000086 4FC2          MOV.B     r15,&_U+0             ; [] |218| 
         000088 0000!
    3083                    .dwpsn  file "..\CDC.h",line 219,column 2,is_stmt,isa 0
    3084 00008a 403F          MOV.W     #48,r15               ; [] |219| 
         00008c 0030 
    3085 00008e 525F          ADD.B     &_C+0,r15             ; [] |219| 
         000090 0000!
    3086 000092 4FC2          MOV.B     r15,&aux_char+0       ; [] |219| 
         000094 0000!
    3087                    .dwpsn  file "..\CDC.h",line 220,column 2,is_stmt,isa 0
    3088 000096 403F          MOV.W     #48,r15               ; [] |220| 
         000098 0030 
    3089 00009a 525F          ADD.B     &_D+0,r15             ; [] |220| 
         00009c 0000!
    3090 00009e 4FC2          MOV.B     r15,&aux_char+1       ; [] |220| 
         0000a0 0001!
    3091                    .dwpsn  file "..\CDC.h",line 221,column 2,is_stmt,isa 0
    3092 0000a2 403F          MOV.W     #48,r15               ; [] |221| 
         0000a4 0030 
    3093 0000a6 525F          ADD.B     &_U+0,r15             ; [] |221| 
         0000a8 0000!
    3094 0000aa 4FC2          MOV.B     r15,&aux_char+2       ; [] |221| 
         0000ac 0002!
    3095                    .dwpsn  file "..\CDC.h",line 222,column 2,is_stmt,isa 0
    3096 0000ae 425C          MOV.B     &_UD+0,r12            ; [] |222| 
         0000b0 0000!
    3097 0000b2 403D          MOV.W     #10,r13               ; [] |222| 
         0000b4 000A 
    3098            $C$DW$251       .dwtag  DW_TAG_TI_branch
    3099                    .dwattr $C$DW$251, DW_AT_low_pc(0x00)
    3100                    .dwattr $C$DW$251, DW_AT_name("__mspabi_divi")
    3101                    .dwattr $C$DW$251, DW_AT_TI_call
    3102 0000b6 12B0          CALL      #__mspabi_divi        ; [] |222| 
         0000b8 0000!
    3103                                                      ; [] |222| 
MSP430 Assembler PC v4.2.1 Sat Jan 28 11:33:39 2017

Tools Copyright (c) 2003-2013 Texas Instruments Incorporated
C:\Users\mauricio\AppData\Local\Temp\0410010                         PAGE   67

    3104            ;* --------------------------------------------------------------------------*
    3105 0000ba 4CC2          MOV.B     r12,&_D+0             ; [] |222| 
         0000bc 0000!
    3106                    .dwpsn  file "..\CDC.h",line 223,column 2,is_stmt,isa 0
    3107 0000be 425C          MOV.B     &_D+0,r12             ; [] |223| 
         0000c0 0000!
    3108 0000c2 403D          MOV.W     #10,r13               ; [] |223| 
         0000c4 000A 
    3109            $C$DW$252       .dwtag  DW_TAG_TI_branch
    3110                    .dwattr $C$DW$252, DW_AT_low_pc(0x00)
    3111                    .dwattr $C$DW$252, DW_AT_name("__mspabi_mpyi")
    3112                    .dwattr $C$DW$252, DW_AT_TI_call
    3113 0000c6 12B0          CALL      #__mspabi_mpyi        ; [] |223| 
         0000c8 0000!
    3114                                                      ; [] |223| 
    3115 0000ca 425F          MOV.B     &_UD+0,r15            ; [] |223| 
         0000cc 0000!
    3116 0000ce 8C4F          SUB.B     r12,r15               ; [] |223| 
    3117 0000d0 4FC2          MOV.B     r15,&_U+0             ; [] |223| 
         0000d2 0000!
    3118                    .dwpsn  file "..\CDC.h",line 224,column 2,is_stmt,isa 0
    3119 0000d4 40F2          MOV.B     #46,&aux_char+3       ; [] |224| 
         0000d6 002E 
         0000d8 0003!
    3120                    .dwpsn  file "..\CDC.h",line 225,column 2,is_stmt,isa 0
    3121 0000da 403F          MOV.W     #48,r15               ; [] |225| 
         0000dc 0030 
    3122 0000de 525F          ADD.B     &_D+0,r15             ; [] |225| 
         0000e0 0000!
    3123 0000e2 4FC2          MOV.B     r15,&aux_char+4       ; [] |225| 
         0000e4 0004!
    3124                    .dwpsn  file "..\CDC.h",line 226,column 2,is_stmt,isa 0
    3125 0000e6 403F          MOV.W     #48,r15               ; [] |226| 
         0000e8 0030 
    3126 0000ea 525F          ADD.B     &_U+0,r15             ; [] |226| 
         0000ec 0000!
    3127 0000ee 4FC2          MOV.B     r15,&aux_char+5       ; [] |226| 
         0000f0 0005!
    3128                    .dwpsn  file "..\CDC.h",line 227,column 2,is_stmt,isa 0
    3129 0000f2 403C          MOV.W     #aux_char+0,r12       ; [] |227| 
         0000f4 0000!
    3130            $C$DW$253       .dwtag  DW_TAG_TI_branch
    3131                    .dwattr $C$DW$253, DW_AT_low_pc(0x00)
    3132                    .dwattr $C$DW$253, DW_AT_name("ec")
    3133                    .dwattr $C$DW$253, DW_AT_TI_call
    3134 0000f6 12B0          CALL      #ec                   ; [] |227| 
         0000f8 0000!
    3135                                                      ; [] |227| 
    3136                    .dwpsn  file "..\CDC.h",line 228,column 1,is_stmt,isa 0
    3137 0000fa 4030          BR        #__mspabi_func_epilog_2+0 ; [] 
         0000fc 0000!
    3138                                                      ; [] 
    3139                    .dwattr $C$DW$238, DW_AT_TI_end_file("..\CDC.h")
    3140                    .dwattr $C$DW$238, DW_AT_TI_end_line(0xe4)
    3141                    .dwattr $C$DW$238, DW_AT_TI_end_column(0x01)
MSP430 Assembler PC v4.2.1 Sat Jan 28 11:33:39 2017

Tools Copyright (c) 2003-2013 Texas Instruments Incorporated
C:\Users\mauricio\AppData\Local\Temp\0410010                         PAGE   68

    3142                    .dwendentry
    3143                    .dwendtag $C$DW$238
    3144            
    3145 000000               .sect   ".text:LcdEnable"
    3146                    .align  2
    3147                    .clink
    3148                    .global LcdEnable
    3149            
    3150            $C$DW$254       .dwtag  DW_TAG_subprogram, DW_AT_name("LcdEnable")
    3151                    .dwattr $C$DW$254, DW_AT_low_pc(LcdEnable)
    3152                    .dwattr $C$DW$254, DW_AT_high_pc(0x00)
    3153                    .dwattr $C$DW$254, DW_AT_TI_symbol_name("LcdEnable")
    3154                    .dwattr $C$DW$254, DW_AT_external
    3155                    .dwattr $C$DW$254, DW_AT_TI_begin_file("..\lcd16x2.h")
    3156                    .dwattr $C$DW$254, DW_AT_TI_begin_line(0x13)
    3157                    .dwattr $C$DW$254, DW_AT_TI_begin_column(0x08)
    3158                    .dwattr $C$DW$254, DW_AT_decl_file("..\lcd16x2.h")
    3159                    .dwattr $C$DW$254, DW_AT_decl_line(0x13)
    3160                    .dwattr $C$DW$254, DW_AT_decl_column(0x08)
    3161                    .dwattr $C$DW$254, DW_AT_TI_max_frame_size(0x02)
    3162                    .dwpsn  file "..\lcd16x2.h",line 20,column 4,is_stmt,address LcdEnable,isa 0
    3163            
    3164                    .dwfde $C$DW$CIE, LcdEnable
    3165            
    3166            ;*****************************************************************************
    3167            ;* FUNCTION NAME: LcdEnable                                                  *
    3168            ;*                                                                           *
    3169            ;*   Regs Modified     : SP                                                  *
    3170            ;*   Regs Used         : SP                                                  *
    3171            ;*   Local Frame Size  : 0 Args + 0 Auto + 0 Save = 0 byte                   *
    3172            ;*****************************************************************************
    3173 000000       LcdEnable:
    3174            ;* --------------------------------------------------------------------------*
    3175                    .dwcfi  cfa_offset, 2
    3176                    .dwcfi  save_reg_to_mem, 16, -2
    3177                    .dwpsn  file "..\lcd16x2.h",line 21,column 3,is_stmt,isa 0
    3178 000000 C2F2          BIC.B     #8,&P2OUT+0           ; [] |21| 
         000002 0000!
    3179                    .dwpsn  file "..\lcd16x2.h",line 22,column 3,is_stmt,isa 0
    3180                    ; Begin 300 cycle delay
    3181                    .newblock
    3182 000004 120D          PUSH     r13
    3183 000006 403D          MOV.W    #97, r13
         000008 0061 
    3184 00000a 831D  $1:     SUB.W    #1, r13
    3185 00000c 23FE          JNE      $1
    3186 00000e 413D          POP      r13
    3187 000010 3C00          JMP ($ + 2)
    3188                    ; End 300 cycle delay ; [] |22| 
    3189                    .dwpsn  file "..\lcd16x2.h",line 23,column 3,is_stmt,isa 0
    3190 000012 D2F2          OR.B      #8,&P2OUT+0           ; [] |23| 
         000014 0000!
    3191                    .dwpsn  file "..\lcd16x2.h",line 24,column 3,is_stmt,isa 0
    3192                    ; Begin 300 cycle delay
    3193                    .newblock
MSP430 Assembler PC v4.2.1 Sat Jan 28 11:33:39 2017

Tools Copyright (c) 2003-2013 Texas Instruments Incorporated
C:\Users\mauricio\AppData\Local\Temp\0410010                         PAGE   69

    3194 000016 120D          PUSH     r13
    3195 000018 403D          MOV.W    #97, r13
         00001a 0061 
    3196 00001c 831D  $1:     SUB.W    #1, r13
    3197 00001e 23FE          JNE      $1
    3198 000020 413D          POP      r13
    3199 000022 3C00          JMP ($ + 2)
    3200                    ; End 300 cycle delay ; [] |24| 
    3201                    .dwpsn  file "..\lcd16x2.h",line 25,column 3,is_stmt,isa 0
    3202 000024 C2F2          BIC.B     #8,&P2OUT+0           ; [] |25| 
         000026 0000!
    3203                    .dwpsn  file "..\lcd16x2.h",line 26,column 3,is_stmt,isa 0
    3204                    ; Begin 300 cycle delay
    3205                    .newblock
    3206 000028 120D          PUSH     r13
    3207 00002a 403D          MOV.W    #97, r13
         00002c 0061 
    3208 00002e 831D  $1:     SUB.W    #1, r13
    3209 000030 23FE          JNE      $1
    3210 000032 413D          POP      r13
    3211 000034 3C00          JMP ($ + 2)
    3212                    ; End 300 cycle delay ; [] |26| 
    3213                    .dwpsn  file "..\lcd16x2.h",line 27,column 4,is_stmt,isa 0
    3214            $C$DW$255       .dwtag  DW_TAG_TI_branch
    3215                    .dwattr $C$DW$255, DW_AT_low_pc(0x00)
    3216                    .dwattr $C$DW$255, DW_AT_TI_return
    3217 000036 4130          RET       ; [] 
    3218                    ; [] 
    3219                    .dwattr $C$DW$254, DW_AT_TI_end_file("..\lcd16x2.h")
    3220                    .dwattr $C$DW$254, DW_AT_TI_end_line(0x1b)
    3221                    .dwattr $C$DW$254, DW_AT_TI_end_column(0x04)
    3222                    .dwendentry
    3223                    .dwendtag $C$DW$254
    3224            
    3225 000000               .sect   ".text:SendByte"
    3226                    .align  2
    3227                    .clink
    3228                    .global SendByte
    3229            
    3230            $C$DW$256       .dwtag  DW_TAG_subprogram, DW_AT_name("SendByte")
    3231                    .dwattr $C$DW$256, DW_AT_low_pc(SendByte)
    3232                    .dwattr $C$DW$256, DW_AT_high_pc(0x00)
    3233                    .dwattr $C$DW$256, DW_AT_TI_symbol_name("SendByte")
    3234                    .dwattr $C$DW$256, DW_AT_external
    3235                    .dwattr $C$DW$256, DW_AT_TI_begin_file("..\lcd16x2.h")
    3236                    .dwattr $C$DW$256, DW_AT_TI_begin_line(0x21)
    3237                    .dwattr $C$DW$256, DW_AT_TI_begin_column(0x08)
    3238                    .dwattr $C$DW$256, DW_AT_decl_file("..\lcd16x2.h")
    3239                    .dwattr $C$DW$256, DW_AT_decl_line(0x21)
    3240                    .dwattr $C$DW$256, DW_AT_decl_column(0x08)
    3241                    .dwattr $C$DW$256, DW_AT_TI_max_frame_size(0x02)
    3242                    .dwpsn  file "..\lcd16x2.h",line 34,column 4,is_stmt,address SendByte,isa 0
    3243            
    3244                    .dwfde $C$DW$CIE, SendByte
